STACK CFI INIT 1dc0 2a .cfa: $rsp 8 + .ra: .cfa -8 + ^
STACK CFI INIT 1580 370 .cfa: $rsp 16 + .ra: .cfa -8 + ^
STACK CFI 1586 .cfa: $rsp 24 +
STACK CFI INIT 1ec0 3b .cfa: $rsp 8 + .ra: .cfa -8 + ^
STACK CFI 1ec3 $rbx: .cfa -16 + ^ .cfa: $rsp 16 +
STACK CFI 1edd .cfa: $rsp 8 +
STACK CFI 1ee0 .cfa: $rsp 16 +
STACK CFI 1efa .cfa: $rsp 8 +
STACK CFI INIT 1f00 32 .cfa: $rsp 8 + .ra: .cfa -8 + ^
STACK CFI 1f01 $rbx: .cfa -16 + ^ .cfa: $rsp 16 +
STACK CFI 1f24 .cfa: $rsp 8 +
STACK CFI 1f30 .cfa: $rsp 16 +
STACK CFI 1f31 .cfa: $rsp 8 +
STACK CFI INIT 1c70 14c .cfa: $rsp 8 + .ra: .cfa -8 + ^
STACK CFI 1c71 $rbp: .cfa -16 + ^ .cfa: $rsp 16 +
STACK CFI 1c86 .cfa: $rbp 16 +
STACK CFI 1c89 $r14: .cfa -24 + ^ $rbx: .cfa -32 + ^
STACK CFI 1da3 .cfa: $rsp 8 +
STACK CFI 1da4 .cfa: $rbp 16 +
STACK CFI INIT 1f40 122 .cfa: $rsp 8 + .ra: .cfa -8 + ^
STACK CFI 1f42 $r14: .cfa -16 + ^ .cfa: $rsp 16 +
STACK CFI 1f44 $r13: .cfa -24 + ^ .cfa: $rsp 24 +
STACK CFI 1f46 $r12: .cfa -32 + ^ .cfa: $rsp 32 +
STACK CFI 1f47 $rbp: .cfa -40 + ^ .cfa: $rsp 40 +
STACK CFI 1f48 $rbx: .cfa -48 + ^ .cfa: $rsp 48 +
STACK CFI 1f4f .cfa: $rsp 208 +
STACK CFI 2054 .cfa: $rsp 48 +
STACK CFI 2055 .cfa: $rsp 40 +
STACK CFI 2056 .cfa: $rsp 32 +
STACK CFI 2058 .cfa: $rsp 24 +
STACK CFI 205a .cfa: $rsp 16 +
STACK CFI 205c .cfa: $rsp 8 +
STACK CFI 205d .cfa: $rsp 208 +
STACK CFI INIT 2070 7c .cfa: $rsp 8 + .ra: .cfa -8 + ^
STACK CFI 207b $r13: .cfa -16 + ^ .cfa: $rsp 16 +
STACK CFI 207d $r12: .cfa -24 + ^ .cfa: $rsp 24 +
STACK CFI 2085 $rbp: .cfa -32 + ^ .cfa: $rsp 32 +
STACK CFI 2086 $rbx: .cfa -40 + ^ .cfa: $rsp 40 +
STACK CFI 2098 .cfa: $rsp 48 +
STACK CFI 20d1 .cfa: $rsp 40 +
STACK CFI 20d2 $rbx: $rbx .cfa: $rsp 32 +
STACK CFI 20d3 $rbp: $rbp .cfa: $rsp 24 +
STACK CFI 20d5 $r12: $r12 .cfa: $rsp 16 +
STACK CFI 20d7 $r13: $r13 .cfa: $rsp 8 +
STACK CFI 20e0 $r12: .cfa -24 + ^ $r13: .cfa -16 + ^ $rbp: .cfa -32 + ^ $rbx: .cfa -40 + ^ .cfa: $rsp 48 +
STACK CFI INIT 20f0 341 .cfa: $rsp 8 + .ra: .cfa -8 + ^
STACK CFI 20f2 $r12: .cfa -16 + ^ .cfa: $rsp 16 +
STACK CFI 20f3 $rbp: .cfa -24 + ^ .cfa: $rsp 24 +
STACK CFI 20f4 $rbx: .cfa -32 + ^ .cfa: $rsp 32 +
STACK CFI 2102 .cfa: $rsp 96 +
STACK CFI 22b3 .cfa: $rsp 32 +
STACK CFI 22b4 .cfa: $rsp 24 +
STACK CFI 22b5 .cfa: $rsp 16 +
STACK CFI 22b7 .cfa: $rsp 8 +
STACK CFI 22c0 .cfa: $rsp 96 +
STACK CFI INIT 2440 d1 .cfa: $rsp 8 + .ra: .cfa -8 + ^
STACK CFI 2442 $r15: .cfa -16 + ^ .cfa: $rsp 16 +
STACK CFI 2444 $r14: .cfa -24 + ^ .cfa: $rsp 24 +
STACK CFI 2449 $r13: .cfa -32 + ^ .cfa: $rsp 32 +
STACK CFI 244b $r12: .cfa -40 + ^ .cfa: $rsp 40 +
STACK CFI 2453 $rbp: .cfa -48 + ^ .cfa: $rsp 48 +
STACK CFI 2454 $rbx: .cfa -56 + ^ .cfa: $rsp 56 +
STACK CFI 2463 .cfa: $rsp 64 +
STACK CFI 248e .cfa: $rsp 56 +
STACK CFI 248f .cfa: $rsp 48 +
STACK CFI 2490 .cfa: $rsp 40 +
STACK CFI 2492 .cfa: $rsp 32 +
STACK CFI 2494 .cfa: $rsp 24 +
STACK CFI 2496 .cfa: $rsp 16 +
STACK CFI 2498 .cfa: $rsp 8 +
STACK CFI 24a0 .cfa: $rsp 64 +
STACK CFI 24ec .cfa: $rsp 56 +
STACK CFI 24f9 .cfa: $rsp 48 +
STACK CFI 24fa .cfa: $rsp 40 +
STACK CFI 24fc .cfa: $rsp 32 +
STACK CFI 24fe .cfa: $rsp 24 +
STACK CFI 2500 .cfa: $rsp 16 +
STACK CFI 2502 .cfa: $rsp 8 +
STACK CFI 2507 .cfa: $rsp 64 +
STACK CFI INIT 2520 4c6 .cfa: $rsp 8 + .ra: .cfa -8 + ^
STACK CFI 2522 $r15: .cfa -16 + ^ .cfa: $rsp 16 +
STACK CFI 2524 $r14: .cfa -24 + ^ .cfa: $rsp 24 +
STACK CFI 2526 $r13: .cfa -32 + ^ .cfa: $rsp 32 +
STACK CFI 2528 $r12: .cfa -40 + ^ .cfa: $rsp 40 +
STACK CFI 2529 $rbp: .cfa -48 + ^ .cfa: $rsp 48 +
STACK CFI 252a $rbx: .cfa -56 + ^ .cfa: $rsp 56 +
STACK CFI 2534 .cfa: $rsp 144 +
STACK CFI 2574 .cfa: $rsp 56 +
STACK CFI 2575 .cfa: $rsp 48 +
STACK CFI 2576 .cfa: $rsp 40 +
STACK CFI 2578 .cfa: $rsp 32 +
STACK CFI 257a .cfa: $rsp 24 +
STACK CFI 257c .cfa: $rsp 16 +
STACK CFI 257e .cfa: $rsp 8 +
STACK CFI 2580 .cfa: $rsp 144 +
STACK CFI INIT 29f0 1da .cfa: $rsp 8 + .ra: .cfa -8 + ^
STACK CFI 29f2 $r13: .cfa -16 + ^ .cfa: $rsp 16 +
STACK CFI 29f4 $r12: .cfa -24 + ^ .cfa: $rsp 24 +
STACK CFI 29f8 $rbp: .cfa -32 + ^ .cfa: $rsp 32 +
STACK CFI 29f9 $rbx: .cfa -40 + ^ .cfa: $rsp 40 +
STACK CFI 2a03 .cfa: $rsp 48 +
STACK CFI 2a19 .cfa: $rsp 40 +
STACK CFI 2a1a .cfa: $rsp 32 +
STACK CFI 2a1b .cfa: $rsp 24 +
STACK CFI 2a1d .cfa: $rsp 16 +
STACK CFI 2a1f .cfa: $rsp 8 +
STACK CFI 2a20 .cfa: $rsp 48 +
STACK CFI 2b8d .cfa: $rsp 40 +
STACK CFI 2b98 .cfa: $rsp 32 +
STACK CFI 2b99 .cfa: $rsp 24 +
STACK CFI 2b9b .cfa: $rsp 16 +
STACK CFI 2b9d .cfa: $rsp 8 +
STACK CFI 2ba8 .cfa: $rsp 48 +
STACK CFI INIT 2bd0 1ef .cfa: $rsp 8 + .ra: .cfa -8 + ^
STACK CFI 2bd2 $r14: .cfa -16 + ^ .cfa: $rsp 16 +
STACK CFI 2bd4 $r13: .cfa -24 + ^ .cfa: $rsp 24 +
STACK CFI 2bd9 $r12: .cfa -32 + ^ .cfa: $rsp 32 +
STACK CFI 2bda $rbp: .cfa -40 + ^ .cfa: $rsp 40 +
STACK CFI 2bde $rbx: .cfa -48 + ^ .cfa: $rsp 48 +
STACK CFI 2be8 .cfa: $rsp 208 +
STACK CFI 2c2b .cfa: $rsp 48 +
STACK CFI 2c2c .cfa: $rsp 40 +
STACK CFI 2c2d .cfa: $rsp 32 +
STACK CFI 2c2f .cfa: $rsp 24 +
STACK CFI 2c31 .cfa: $rsp 16 +
STACK CFI 2c33 .cfa: $rsp 8 +
STACK CFI 2c38 .cfa: $rsp 208 +
STACK CFI INIT 2dc0 7f .cfa: $rsp 8 + .ra: .cfa -8 + ^
STACK CFI 2dc7 .cfa: $rsp 1104 +
STACK CFI 2e39 .cfa: $rsp 8 +
STACK CFI 2e3a .cfa: $rsp 1104 +
STACK CFI INIT 2e40 e5 .cfa: $rsp 8 + .ra: .cfa -8 + ^
STACK CFI 2e42 $r15: .cfa -16 + ^ .cfa: $rsp 16 +
STACK CFI 2e44 $r14: .cfa -24 + ^ .cfa: $rsp 24 +
STACK CFI 2e49 $r13: .cfa -32 + ^ .cfa: $rsp 32 +
STACK CFI 2e4b $r12: .cfa -40 + ^ .cfa: $rsp 40 +
STACK CFI 2e4f $rbp: .cfa -48 + ^ .cfa: $rsp 48 +
STACK CFI 2e50 $rbx: .cfa -56 + ^ .cfa: $rsp 56 +
STACK CFI 2e59 .cfa: $rsp 80 +
STACK CFI 2eaa .cfa: $rsp 56 +
STACK CFI 2eab .cfa: $rsp 48 +
STACK CFI 2eac .cfa: $rsp 40 +
STACK CFI 2eae .cfa: $rsp 32 +
STACK CFI 2eb0 .cfa: $rsp 24 +
STACK CFI 2eb2 .cfa: $rsp 16 +
STACK CFI 2eb4 .cfa: $rsp 8 +
STACK CFI 2eb8 .cfa: $rsp 80 +
STACK CFI INIT 2f30 ac .cfa: $rsp 8 + .ra: .cfa -8 + ^
STACK CFI 2f31 $rbx: .cfa -16 + ^ .cfa: $rsp 16 +
STACK CFI 2f6f .cfa: $rsp 24 +
STACK CFI 2f71 .cfa: $rsp 32 +
STACK CFI 2f7a .cfa: $rsp 40 +
STACK CFI 2f7b .cfa: $rsp 48 +
STACK CFI 2f8d .cfa: $rsp 16 +
STACK CFI 2f8e .cfa: $rsp 8 +
STACK CFI 2f90 .cfa: $rsp 16 +
STACK CFI 2fa1 .cfa: $rsp 24 +
STACK CFI 2fa3 .cfa: $rsp 32 +
STACK CFI 2fac .cfa: $rsp 24 +
STACK CFI 2fad .cfa: $rsp 16 +
STACK CFI 2fae .cfa: $rsp 8 +
STACK CFI 2fb0 .cfa: $rsp 16 +
STACK CFI 2fbc .cfa: $rsp 24 +
STACK CFI 2fbe .cfa: $rsp 32 +
STACK CFI 2fc7 .cfa: $rsp 40 +
STACK CFI 2fc8 .cfa: $rsp 48 +
STACK CFI 2fda .cfa: $rsp 16 +
STACK CFI 2fdb .cfa: $rsp 8 +
STACK CFI INIT 2fe0 82 .cfa: $rsp 8 + .ra: .cfa -8 + ^
STACK CFI 2fe1 $rbp: .cfa -16 + ^ .cfa: $rsp 16 +
STACK CFI 2fe2 $rbx: .cfa -24 + ^ .cfa: $rsp 24 +
STACK CFI 2fee .cfa: $rsp 32 +
STACK CFI 3059 .cfa: $rsp 24 +
STACK CFI 3060 .cfa: $rsp 16 +
STACK CFI 3061 .cfa: $rsp 8 +
STACK CFI INIT 3070 195 .cfa: $rsp 8 + .ra: .cfa -8 + ^
STACK CFI 3071 $rbx: .cfa -16 + ^ .cfa: $rsp 16 +
STACK CFI 3078 .cfa: $rsp 1632 +
STACK CFI 3109 .cfa: $rsp 16 +
STACK CFI 310a .cfa: $rsp 8 +
STACK CFI 3110 .cfa: $rsp 1632 +
STACK CFI INIT 3210 e3 .cfa: $rsp 8 + .ra: .cfa -8 + ^
STACK CFI 3212 $r14: .cfa -16 + ^ .cfa: $rsp 16 +
STACK CFI 3214 $r13: .cfa -24 + ^ .cfa: $rsp 24 +
STACK CFI 3218 $rbp: .cfa -32 + ^ .cfa: $rsp 32 +
STACK CFI 3219 $rbx: .cfa -40 + ^ .cfa: $rsp 40 +
STACK CFI 3228 .cfa: $rsp 672 +
STACK CFI 32e7 .cfa: $rsp 40 +
STACK CFI 32e8 .cfa: $rsp 32 +
STACK CFI 32e9 .cfa: $rsp 24 +
STACK CFI 32eb .cfa: $rsp 16 +
STACK CFI 32ed .cfa: $rsp 8 +
STACK CFI 32ee .cfa: $rsp 672 +
STACK CFI INIT 3300 91 .cfa: $rsp 8 + .ra: .cfa -8 + ^
STACK CFI 3302 $r13: .cfa -16 + ^ .cfa: $rsp 16 +
STACK CFI 3304 $r12: .cfa -24 + ^ .cfa: $rsp 24 +
STACK CFI 3305 $rbp: .cfa -32 + ^ .cfa: $rsp 32 +
STACK CFI 3306 $rbx: .cfa -40 + ^ .cfa: $rsp 40 +
STACK CFI 3311 .cfa: $rsp 48 +
STACK CFI 333a .cfa: $rsp 40 +
STACK CFI 333b .cfa: $rsp 32 +
STACK CFI 333c .cfa: $rsp 24 +
STACK CFI 333e .cfa: $rsp 16 +
STACK CFI 3340 .cfa: $rsp 8 +
STACK CFI 3348 .cfa: $rsp 48 +
STACK CFI 338a .cfa: $rsp 40 +
STACK CFI 338b .cfa: $rsp 32 +
STACK CFI 338c .cfa: $rsp 24 +
STACK CFI 338e .cfa: $rsp 16 +
STACK CFI 3390 .cfa: $rsp 8 +
STACK CFI INIT 33a0 52 .cfa: $rsp 8 + .ra: .cfa -8 + ^
STACK CFI 33a1 $rbx: .cfa -16 + ^ .cfa: $rsp 16 +
STACK CFI 33e2 .cfa: $rsp 8 +
STACK CFI 33f0 .cfa: $rsp 16 +
STACK CFI 33f1 .cfa: $rsp 8 +
STACK CFI INIT 3400 257 .cfa: $rsp 8 + .ra: .cfa -8 + ^
STACK CFI 3402 $r15: .cfa -16 + ^ .cfa: $rsp 16 +
STACK CFI 3404 $r14: .cfa -24 + ^ .cfa: $rsp 24 +
STACK CFI 3409 $r13: .cfa -32 + ^ .cfa: $rsp 32 +
STACK CFI 340b $r12: .cfa -40 + ^ .cfa: $rsp 40 +
STACK CFI 340f $rbp: .cfa -48 + ^ .cfa: $rsp 48 +
STACK CFI 3410 $rbx: .cfa -56 + ^ .cfa: $rsp 56 +
STACK CFI 3420 .cfa: $rsp 240 +
STACK CFI 359d .cfa: $rsp 56 +
STACK CFI 359e .cfa: $rsp 48 +
STACK CFI 359f .cfa: $rsp 40 +
STACK CFI 35a1 .cfa: $rsp 32 +
STACK CFI 35a3 .cfa: $rsp 24 +
STACK CFI 35a5 .cfa: $rsp 16 +
STACK CFI 35a7 .cfa: $rsp 8 +
STACK CFI 35b0 .cfa: $rsp 240 +
STACK CFI INIT 3660 8 .cfa: $rsp 8 + .ra: .cfa -8 + ^
STACK CFI INIT 3cb0 ea .cfa: $rsp 8 + .ra: .cfa -8 + ^
STACK CFI 3cb2 $r15: .cfa -16 + ^ .cfa: $rsp 16 +
STACK CFI 3cb4 $r14: .cfa -24 + ^ .cfa: $rsp 24 +
STACK CFI 3cb9 $r13: .cfa -32 + ^ .cfa: $rsp 32 +
STACK CFI 3cbb $r12: .cfa -40 + ^ .cfa: $rsp 40 +
STACK CFI 3cbf $rbp: .cfa -48 + ^ .cfa: $rsp 48 +
STACK CFI 3cc0 $rbx: .cfa -56 + ^ .cfa: $rsp 56 +
STACK CFI 3cc4 .cfa: $rsp 64 +
STACK CFI 3d4a .cfa: $rsp 56 +
STACK CFI 3d4b .cfa: $rsp 48 +
STACK CFI 3d4c .cfa: $rsp 40 +
STACK CFI 3d4e .cfa: $rsp 32 +
STACK CFI 3d50 .cfa: $rsp 24 +
STACK CFI 3d52 .cfa: $rsp 16 +
STACK CFI 3d54 .cfa: $rsp 8 +
STACK CFI 3d58 .cfa: $rsp 64 +
STACK CFI INIT 3670 396 .cfa: $rsp 8 + .ra: .cfa -8 + ^
STACK CFI 3672 $r15: .cfa -16 + ^ .cfa: $rsp 16 +
STACK CFI 3674 $r14: .cfa -24 + ^ .cfa: $rsp 24 +
STACK CFI 3679 $r13: .cfa -32 + ^ .cfa: $rsp 32 +
STACK CFI 367f $r12: .cfa -40 + ^ .cfa: $rsp 40 +
STACK CFI 3680 $rbp: .cfa -48 + ^ .cfa: $rsp 48 +
STACK CFI 3681 $rbx: .cfa -56 + ^ .cfa: $rsp 56 +
STACK CFI 3688 .cfa: $rsp 80 +
STACK CFI 37d0 .cfa: $rsp 56 +
STACK CFI 37d1 .cfa: $rsp 48 +
STACK CFI 37d2 .cfa: $rsp 40 +
STACK CFI 37d4 .cfa: $rsp 32 +
STACK CFI 37d6 .cfa: $rsp 24 +
STACK CFI 37d8 .cfa: $rsp 16 +
STACK CFI 37da .cfa: $rsp 8 +
STACK CFI 37e0 .cfa: $rsp 80 +
STACK CFI INIT 3a10 292 .cfa: $rsp 8 + .ra: .cfa -8 + ^
STACK CFI 3a11 $rbp: .cfa -16 + ^ .cfa: $rsp 16 +
STACK CFI 3a14 .cfa: $rbp 16 +
STACK CFI 3a1c $r12: .cfa -48 + ^ $r13: .cfa -40 + ^ $r14: .cfa -32 + ^ $r15: .cfa -24 + ^
STACK CFI 3a20 $rbx: .cfa -56 + ^
STACK CFI 3be0 .cfa: $rsp 8 +
STACK CFI 3be8 .cfa: $rbp 16 +
STACK CFI INIT 3da0 17c .cfa: $rsp 8 + .ra: .cfa -8 + ^
STACK CFI 3da2 $r13: .cfa -16 + ^ .cfa: $rsp 16 +
STACK CFI 3da4 $r12: .cfa -24 + ^ .cfa: $rsp 24 +
STACK CFI 3da5 $rbp: .cfa -32 + ^ .cfa: $rsp 32 +
STACK CFI 3da6 $rbx: .cfa -40 + ^ .cfa: $rsp 40 +
STACK CFI 3db4 .cfa: $rsp 64 +
STACK CFI 3ea0 .cfa: $rsp 40 +
STACK CFI 3ea1 .cfa: $rsp 32 +
STACK CFI 3ea2 .cfa: $rsp 24 +
STACK CFI 3ea4 .cfa: $rsp 16 +
STACK CFI 3ea6 .cfa: $rsp 8 +
STACK CFI 3eb0 .cfa: $rsp 64 +
STACK CFI INIT 3f20 3c7 .cfa: $rsp 8 + .ra: .cfa -8 + ^
STACK CFI 3f22 $r14: .cfa -16 + ^ .cfa: $rsp 16 +
STACK CFI 3f24 $r13: .cfa -24 + ^ .cfa: $rsp 24 +
STACK CFI 3f26 $r12: .cfa -32 + ^ .cfa: $rsp 32 +
STACK CFI 3f27 $rbp: .cfa -40 + ^ .cfa: $rsp 40 +
STACK CFI 3f28 $rbx: .cfa -48 + ^ .cfa: $rsp 48 +
STACK CFI 3f2f .cfa: $rsp 224 +
STACK CFI 41c8 .cfa: $rsp 48 +
STACK CFI 41c9 .cfa: $rsp 40 +
STACK CFI 41ca .cfa: $rsp 32 +
STACK CFI 41cc .cfa: $rsp 24 +
STACK CFI 41ce .cfa: $rsp 16 +
STACK CFI 41d0 .cfa: $rsp 8 +
STACK CFI 41d8 .cfa: $rsp 224 +
STACK CFI INIT 42f0 c2 .cfa: $rsp 8 + .ra: .cfa -8 + ^
STACK CFI 42f1 $rbp: .cfa -16 + ^ .cfa: $rsp 16 +
STACK CFI 42f2 $rbx: .cfa -24 + ^ .cfa: $rsp 24 +
STACK CFI 42f6 .cfa: $rsp 32 +
STACK CFI 438d .cfa: $rsp 24 +
STACK CFI 4391 .cfa: $rsp 16 +
STACK CFI 4392 .cfa: $rsp 8 +
STACK CFI 4393 .cfa: $rsp 32 +
STACK CFI INIT 43c0 33 .cfa: $rsp 8 + .ra: .cfa -8 + ^
STACK CFI 43cc $rbx: .cfa -16 + ^ .cfa: $rsp 16 +
STACK CFI 43f2 .cfa: $rsp 8 +
STACK CFI INIT 6e10 3de .cfa: $rsp 8 + .ra: .cfa -8 + ^
STACK CFI 6e1b $r15: .cfa -16 + ^ .cfa: $rsp 16 +
STACK CFI 6e1d $r14: .cfa -24 + ^ .cfa: $rsp 24 +
STACK CFI 6e22 $r13: .cfa -32 + ^ .cfa: $rsp 32 +
STACK CFI 6e24 $r12: .cfa -40 + ^ .cfa: $rsp 40 +
STACK CFI 6e28 $rbp: .cfa -48 + ^ .cfa: $rsp 48 +
STACK CFI 6e29 $rbx: .cfa -56 + ^ .cfa: $rsp 56 +
STACK CFI 6e39 .cfa: $rsp 96 +
STACK CFI 6eac .cfa: $rsp 56 +
STACK CFI 6ead $rbx: $rbx .cfa: $rsp 48 +
STACK CFI 6eae $rbp: $rbp .cfa: $rsp 40 +
STACK CFI 6eb0 $r12: $r12 .cfa: $rsp 32 +
STACK CFI 6eb2 $r13: $r13 .cfa: $rsp 24 +
STACK CFI 6eb4 $r14: $r14 .cfa: $rsp 16 +
STACK CFI 6eb6 $r15: $r15 .cfa: $rsp 8 +
STACK CFI 6ec0 $r12: .cfa -40 + ^ $r13: .cfa -32 + ^ $r14: .cfa -24 + ^ $r15: .cfa -16 + ^ $rbp: .cfa -48 + ^ $rbx: .cfa -56 + ^ .cfa: $rsp 96 +
STACK CFI 6f30 .cfa: $rsp 56 +
STACK CFI 6f37 $rbx: $rbx .cfa: $rsp 48 +
STACK CFI 6f38 $rbp: $rbp .cfa: $rsp 40 +
STACK CFI 6f3a $r12: $r12 .cfa: $rsp 32 +
STACK CFI 6f3c $r13: $r13 .cfa: $rsp 24 +
STACK CFI 6f3e $r14: $r14 .cfa: $rsp 16 +
STACK CFI 6f40 $r15: $r15 .cfa: $rsp 8 +
STACK CFI 6f48 $r12: .cfa -40 + ^ $r13: .cfa -32 + ^ $r14: .cfa -24 + ^ $r15: .cfa -16 + ^ $rbp: .cfa -48 + ^ $rbx: .cfa -56 + ^ .cfa: $rsp 96 +
STACK CFI 702d .cfa: $rsp 56 +
STACK CFI 702e $rbx: $rbx .cfa: $rsp 48 +
STACK CFI 702f $rbp: $rbp .cfa: $rsp 40 +
STACK CFI 7031 $r12: $r12 .cfa: $rsp 32 +
STACK CFI 7033 $r13: $r13 .cfa: $rsp 24 +
STACK CFI 7035 $r14: $r14 .cfa: $rsp 16 +
STACK CFI 7037 $r15: $r15 .cfa: $rsp 8 +
STACK CFI 7040 $r12: .cfa -40 + ^ $r13: .cfa -32 + ^ $r14: .cfa -24 + ^ $r15: .cfa -16 + ^ $rbp: .cfa -48 + ^ $rbx: .cfa -56 + ^ .cfa: $rsp 96 +
STACK CFI INIT 4400 2a01 .cfa: $rsp 8 + .ra: .cfa -8 + ^
STACK CFI 4401 $rbp: .cfa -16 + ^ .cfa: $rsp 16 +
STACK CFI 4404 .cfa: $rbp 16 +
STACK CFI 440c $r12: .cfa -48 + ^ $r13: .cfa -40 + ^ $r14: .cfa -32 + ^ $r15: .cfa -24 + ^
STACK CFI 441f $rbx: .cfa -56 + ^
STACK CFI 44c0 .cfa: $rsp 8 +
STACK CFI 44c8 .cfa: $rbp 16 +
STACK CFI INIT 71f0 6 .cfa: $rsp 8 + .ra: .cfa -8 + ^
STACK CFI INIT 9350 143 .cfa: $rsp 8 + .ra: .cfa -8 + ^
STACK CFI 935b $r15: .cfa -16 + ^ .cfa: $rsp 16 +
STACK CFI 935d $r14: .cfa -24 + ^ .cfa: $rsp 24 +
STACK CFI 935f $r13: .cfa -32 + ^ .cfa: $rsp 32 +
STACK CFI 9361 $r12: .cfa -40 + ^ .cfa: $rsp 40 +
STACK CFI 9362 $rbp: .cfa -48 + ^ .cfa: $rsp 48 +
STACK CFI 9363 $rbx: .cfa -56 + ^ .cfa: $rsp 56 +
STACK CFI 936a .cfa: $rsp 64 +
STACK CFI 939c .cfa: $rsp 56 +
STACK CFI 939d $rbx: $rbx .cfa: $rsp 48 +
STACK CFI 939e $rbp: $rbp .cfa: $rsp 40 +
STACK CFI 93a0 $r12: $r12 .cfa: $rsp 32 +
STACK CFI 93a2 $r13: $r13 .cfa: $rsp 24 +
STACK CFI 93a4 $r14: $r14 .cfa: $rsp 16 +
STACK CFI 93a6 $r15: $r15 .cfa: $rsp 8 +
STACK CFI 93b0 $r12: .cfa -40 + ^ $r13: .cfa -32 + ^ $r14: .cfa -24 + ^ $r15: .cfa -16 + ^ $rbp: .cfa -48 + ^ $rbx: .cfa -56 + ^ .cfa: $rsp 64 +
STACK CFI 945f .cfa: $rsp 56 +
STACK CFI 9464 $rbx: $rbx .cfa: $rsp 48 +
STACK CFI 9465 $rbp: $rbp .cfa: $rsp 40 +
STACK CFI 9467 $r12: $r12 .cfa: $rsp 32 +
STACK CFI 9469 $r13: $r13 .cfa: $rsp 24 +
STACK CFI 946b $r14: $r14 .cfa: $rsp 16 +
STACK CFI 946d $r15: $r15 .cfa: $rsp 8 +
STACK CFI 9470 $r12: .cfa -40 + ^ $r13: .cfa -32 + ^ $r14: .cfa -24 + ^ $r15: .cfa -16 + ^ $rbp: .cfa -48 + ^ $rbx: .cfa -56 + ^ .cfa: $rsp 64 +
STACK CFI 9484 .cfa: $rsp 56 +
STACK CFI 9485 $rbx: $rbx .cfa: $rsp 48 +
STACK CFI 9486 $rbp: $rbp .cfa: $rsp 40 +
STACK CFI 9488 $r12: $r12 .cfa: $rsp 32 +
STACK CFI 948a $r13: $r13 .cfa: $rsp 24 +
STACK CFI 948c $r14: $r14 .cfa: $rsp 16 +
STACK CFI 948e $r15: $r15 .cfa: $rsp 8 +
STACK CFI INIT 7200 8b2 .cfa: $rsp 8 + .ra: .cfa -8 + ^
STACK CFI 7202 $r15: .cfa -16 + ^ .cfa: $rsp 16 +
STACK CFI 7204 $r14: .cfa -24 + ^ .cfa: $rsp 24 +
STACK CFI 720d $r13: .cfa -32 + ^ .cfa: $rsp 32 +
STACK CFI 720f $r12: .cfa -40 + ^ .cfa: $rsp 40 +
STACK CFI 7213 $rbp: .cfa -48 + ^ .cfa: $rsp 48 +
STACK CFI 7214 $rbx: .cfa -56 + ^ .cfa: $rsp 56 +
STACK CFI 721b .cfa: $rsp 448 +
STACK CFI 7412 .cfa: $rsp 56 +
STACK CFI 7413 .cfa: $rsp 48 +
STACK CFI 7414 .cfa: $rsp 40 +
STACK CFI 7416 .cfa: $rsp 32 +
STACK CFI 7418 .cfa: $rsp 24 +
STACK CFI 741a .cfa: $rsp 16 +
STACK CFI 741c .cfa: $rsp 8 +
STACK CFI 741d .cfa: $rsp 448 +
STACK CFI INIT 7ac0 835 .cfa: $rsp 8 + .ra: .cfa -8 + ^
STACK CFI 7ac2 $r15: .cfa -16 + ^ .cfa: $rsp 16 +
STACK CFI 7ac4 $r14: .cfa -24 + ^ .cfa: $rsp 24 +
STACK CFI 7acd $r13: .cfa -32 + ^ .cfa: $rsp 32 +
STACK CFI 7acf $r12: .cfa -40 + ^ .cfa: $rsp 40 +
STACK CFI 7ad6 $rbp: .cfa -48 + ^ .cfa: $rsp 48 +
STACK CFI 7ad7 $rbx: .cfa -56 + ^ .cfa: $rsp 56 +
STACK CFI 7ae2 .cfa: $rsp 80 +
STACK CFI 7d35 .cfa: $rsp 56 +
STACK CFI 7d36 .cfa: $rsp 48 +
STACK CFI 7d37 .cfa: $rsp 40 +
STACK CFI 7d39 .cfa: $rsp 32 +
STACK CFI 7d3b .cfa: $rsp 24 +
STACK CFI 7d3d .cfa: $rsp 16 +
STACK CFI 7d3f .cfa: $rsp 8 +
STACK CFI 7d40 .cfa: $rsp 80 +
STACK CFI INIT 8300 67 .cfa: $rsp 8 + .ra: .cfa -8 + ^
STACK CFI 8302 $r13: .cfa -16 + ^ .cfa: $rsp 16 +
STACK CFI 8304 $r12: .cfa -24 + ^ .cfa: $rsp 24 +
STACK CFI 8308 $rbp: .cfa -32 + ^ .cfa: $rsp 32 +
STACK CFI 8309 $rbx: .cfa -40 + ^ .cfa: $rsp 40 +
STACK CFI 8312 .cfa: $rsp 48 +
STACK CFI 8360 .cfa: $rsp 40 +
STACK CFI 8361 .cfa: $rsp 32 +
STACK CFI 8362 .cfa: $rsp 24 +
STACK CFI 8364 .cfa: $rsp 16 +
STACK CFI 8366 .cfa: $rsp 8 +
STACK CFI INIT 8370 12 .cfa: $rsp 8 + .ra: .cfa -8 + ^
STACK CFI 8371 $rbx: .cfa -16 + ^ .cfa: $rsp 16 +
STACK CFI 837d .cfa: $rsp 8 +
STACK CFI INIT 8390 1f8 .cfa: $rsp 8 + .ra: .cfa -8 + ^
STACK CFI INIT 8590 4a .cfa: $rsp 8 + .ra: .cfa -8 + ^
STACK CFI 8591 $rbp: .cfa -16 + ^ .cfa: $rsp 16 +
STACK CFI 8592 $rbx: .cfa -24 + ^ .cfa: $rsp 24 +
STACK CFI 85a1 .cfa: $rsp 32 +
STACK CFI 85d5 .cfa: $rsp 24 +
STACK CFI 85d8 .cfa: $rsp 16 +
STACK CFI 85d9 .cfa: $rsp 8 +
STACK CFI INIT 85e0 18b .cfa: $rsp 8 + .ra: .cfa -8 + ^
STACK CFI 85e2 $r14: .cfa -16 + ^ .cfa: $rsp 16 +
STACK CFI 85e4 $r13: .cfa -24 + ^ .cfa: $rsp 24 +
STACK CFI 85e9 $r12: .cfa -32 + ^ .cfa: $rsp 32 +
STACK CFI 85ea $rbp: .cfa -40 + ^ .cfa: $rsp 40 +
STACK CFI 85ef $rbx: .cfa -48 + ^ .cfa: $rsp 48 +
STACK CFI 860b .cfa: $rsp 4208 +
STACK CFI 8649 .cfa: $rsp 48 +
STACK CFI 864a .cfa: $rsp 40 +
STACK CFI 864b .cfa: $rsp 32 +
STACK CFI 864d .cfa: $rsp 24 +
STACK CFI 864f .cfa: $rsp 16 +
STACK CFI 8651 .cfa: $rsp 8 +
STACK CFI 8658 .cfa: $rsp 4208 +
STACK CFI INIT 8770 1a7 .cfa: $rsp 8 + .ra: .cfa -8 + ^
STACK CFI 8772 $r14: .cfa -16 + ^ .cfa: $rsp 16 +
STACK CFI 8774 $r13: .cfa -24 + ^ .cfa: $rsp 24 +
STACK CFI 877d $r12: .cfa -32 + ^ .cfa: $rsp 32 +
STACK CFI 877e $rbp: .cfa -40 + ^ .cfa: $rsp 40 +
STACK CFI 8782 $rbx: .cfa -48 + ^ .cfa: $rsp 48 +
STACK CFI 878c .cfa: $rsp 5008 +
STACK CFI 87d9 .cfa: $rsp 48 +
STACK CFI 87da .cfa: $rsp 40 +
STACK CFI 87db .cfa: $rsp 32 +
STACK CFI 87dd .cfa: $rsp 24 +
STACK CFI 87df .cfa: $rsp 16 +
STACK CFI 87e1 .cfa: $rsp 8 +
STACK CFI 87e8 .cfa: $rsp 5008 +
STACK CFI INIT 8920 e6 .cfa: $rsp 8 + .ra: .cfa -8 + ^
STACK CFI 8922 $r15: .cfa -16 + ^ .cfa: $rsp 16 +
STACK CFI 8924 $r14: .cfa -24 + ^ .cfa: $rsp 24 +
STACK CFI 8929 $r13: .cfa -32 + ^ .cfa: $rsp 32 +
STACK CFI 892b $r12: .cfa -40 + ^ .cfa: $rsp 40 +
STACK CFI 892f $rbp: .cfa -48 + ^ .cfa: $rsp 48 +
STACK CFI 8930 $rbx: .cfa -56 + ^ .cfa: $rsp 56 +
STACK CFI 8941 .cfa: $rsp 64 +
STACK CFI 897b .cfa: $rsp 56 +
STACK CFI 8982 .cfa: $rsp 48 +
STACK CFI 8983 .cfa: $rsp 40 +
STACK CFI 8985 .cfa: $rsp 32 +
STACK CFI 8987 .cfa: $rsp 24 +
STACK CFI 8989 .cfa: $rsp 16 +
STACK CFI 898b .cfa: $rsp 8 +
STACK CFI 8990 .cfa: $rsp 64 +
STACK CFI 89c6 .cfa: $rsp 56 +
STACK CFI 89c7 .cfa: $rsp 48 +
STACK CFI 89c8 .cfa: $rsp 40 +
STACK CFI 89ca .cfa: $rsp 32 +
STACK CFI 89cc .cfa: $rsp 24 +
STACK CFI 89ce .cfa: $rsp 16 +
STACK CFI 89d0 .cfa: $rsp 8 +
STACK CFI 89d8 .cfa: $rsp 64 +
STACK CFI 89ee .cfa: $rsp 56 +
STACK CFI 89f8 .cfa: $rsp 48 +
STACK CFI 89f9 .cfa: $rsp 40 +
STACK CFI 89fb .cfa: $rsp 32 +
STACK CFI 89fd .cfa: $rsp 24 +
STACK CFI 89ff .cfa: $rsp 16 +
STACK CFI 8a01 .cfa: $rsp 8 +
STACK CFI INIT 8a10 119 .cfa: $rsp 8 + .ra: .cfa -8 + ^
STACK CFI 8a12 $r13: .cfa -16 + ^ .cfa: $rsp 16 +
STACK CFI 8a14 $r12: .cfa -24 + ^ .cfa: $rsp 24 +
STACK CFI 8a18 $rbp: .cfa -32 + ^ .cfa: $rsp 32 +
STACK CFI 8a19 $rbx: .cfa -40 + ^ .cfa: $rsp 40 +
STACK CFI 8a27 .cfa: $rsp 336 +
STACK CFI 8ae9 .cfa: $rsp 40 +
STACK CFI 8aea .cfa: $rsp 32 +
STACK CFI 8aeb .cfa: $rsp 24 +
STACK CFI 8aed .cfa: $rsp 16 +
STACK CFI 8aef .cfa: $rsp 8 +
STACK CFI 8af0 .cfa: $rsp 336 +
STACK CFI INIT 8b30 32 .cfa: $rsp 8 + .ra: .cfa -8 + ^
STACK CFI 8b31 $rbx: .cfa -16 + ^ .cfa: $rsp 16 +
STACK CFI 8b40 .cfa: $rsp 8 +
STACK CFI 8b48 .cfa: $rsp 16 +
STACK CFI 8b5c .cfa: $rsp 8 +
STACK CFI INIT 8b70 68 .cfa: $rsp 8 + .ra: .cfa -8 + ^
STACK CFI INIT 8be0 4b .cfa: $rsp 8 + .ra: .cfa -8 + ^
STACK CFI INIT 8c30 7d .cfa: $rsp 8 + .ra: .cfa -8 + ^
STACK CFI 8c32 $r13: .cfa -16 + ^ .cfa: $rsp 16 +
STACK CFI 8c34 $r12: .cfa -24 + ^ .cfa: $rsp 24 +
STACK CFI 8c38 $rbp: .cfa -32 + ^ .cfa: $rsp 32 +
STACK CFI 8c39 $rbx: .cfa -40 + ^ .cfa: $rsp 40 +
STACK CFI 8c46 .cfa: $rsp 48 +
STACK CFI 8c90 .cfa: $rsp 40 +
STACK CFI 8c91 .cfa: $rsp 32 +
STACK CFI 8c92 .cfa: $rsp 24 +
STACK CFI 8c94 .cfa: $rsp 16 +
STACK CFI 8c96 .cfa: $rsp 8 +
STACK CFI 8ca0 .cfa: $rsp 48 +
STACK CFI 8ca4 .cfa: $rsp 40 +
STACK CFI 8ca7 .cfa: $rsp 32 +
STACK CFI 8ca8 .cfa: $rsp 24 +
STACK CFI 8caa .cfa: $rsp 16 +
STACK CFI 8cac .cfa: $rsp 8 +
STACK CFI INIT 8cb0 43 .cfa: $rsp 8 + .ra: .cfa -8 + ^
STACK CFI INIT 8d00 293 .cfa: $rsp 8 + .ra: .cfa -8 + ^
STACK CFI 8d02 $r15: .cfa -16 + ^ .cfa: $rsp 16 +
STACK CFI 8d04 $r14: .cfa -24 + ^ .cfa: $rsp 24 +
STACK CFI 8d06 $r13: .cfa -32 + ^ .cfa: $rsp 32 +
STACK CFI 8d08 $r12: .cfa -40 + ^ .cfa: $rsp 40 +
STACK CFI 8d0c $rbp: .cfa -48 + ^ .cfa: $rsp 48 +
STACK CFI 8d0d $rbx: .cfa -56 + ^ .cfa: $rsp 56 +
STACK CFI 8d20 .cfa: $rsp 352 +
STACK CFI 8eb2 .cfa: $rsp 56 +
STACK CFI 8eb3 .cfa: $rsp 48 +
STACK CFI 8eb4 .cfa: $rsp 40 +
STACK CFI 8eb6 .cfa: $rsp 32 +
STACK CFI 8eb8 .cfa: $rsp 24 +
STACK CFI 8eba .cfa: $rsp 16 +
STACK CFI 8ebc .cfa: $rsp 8 +
STACK CFI 8ebd .cfa: $rsp 352 +
STACK CFI INIT 8fa0 53 .cfa: $rsp 8 + .ra: .cfa -8 + ^
STACK CFI 8fa1 $rbp: .cfa -16 + ^ .cfa: $rsp 16 +
STACK CFI 8fa2 $rbx: .cfa -24 + ^ .cfa: $rsp 24 +
STACK CFI 8faf .cfa: $rsp 32 +
STACK CFI 8fbe .cfa: $rsp 24 +
STACK CFI 8fc1 .cfa: $rsp 16 +
STACK CFI 8fc2 .cfa: $rsp 8 +
STACK CFI 8fc8 .cfa: $rsp 32 +
STACK CFI 8fe6 .cfa: $rsp 24 +
STACK CFI 8fed .cfa: $rsp 16 +
STACK CFI 8fee .cfa: $rsp 8 +
STACK CFI INIT 9000 34b .cfa: $rsp 8 + .ra: .cfa -8 + ^
STACK CFI 9002 $r15: .cfa -16 + ^ .cfa: $rsp 16 +
STACK CFI 9004 $r14: .cfa -24 + ^ .cfa: $rsp 24 +
STACK CFI 9009 $r13: .cfa -32 + ^ .cfa: $rsp 32 +
STACK CFI 900b $r12: .cfa -40 + ^ .cfa: $rsp 40 +
STACK CFI 900f $rbp: .cfa -48 + ^ .cfa: $rsp 48 +
STACK CFI 9010 $rbx: .cfa -56 + ^ .cfa: $rsp 56 +
STACK CFI 901f .cfa: $rsp 4208 +
STACK CFI 9093 .cfa: $rsp 56 +
STACK CFI 9094 .cfa: $rsp 48 +
STACK CFI 9095 .cfa: $rsp 40 +
STACK CFI 9097 .cfa: $rsp 32 +
STACK CFI 9099 .cfa: $rsp 24 +
STACK CFI 909b .cfa: $rsp 16 +
STACK CFI 909d .cfa: $rsp 8 +
STACK CFI 90a0 .cfa: $rsp 4208 +
STACK CFI INIT 94a0 3 .cfa: $rsp 8 + .ra: .cfa -8 + ^
STACK CFI INIT 94b0 187 .cfa: $rsp 8 + .ra: .cfa -8 + ^
STACK CFI 94b2 $r15: .cfa -16 + ^ .cfa: $rsp 16 +
STACK CFI 94b4 $r14: .cfa -24 + ^ .cfa: $rsp 24 +
STACK CFI 94b6 $r13: .cfa -32 + ^ .cfa: $rsp 32 +
STACK CFI 94b8 $r12: .cfa -40 + ^ .cfa: $rsp 40 +
STACK CFI 94b9 $rbp: .cfa -48 + ^ .cfa: $rsp 48 +
STACK CFI 94ba $rbx: .cfa -56 + ^ .cfa: $rsp 56 +
STACK CFI 94be .cfa: $rsp 112 +
STACK CFI 95a5 .cfa: $rsp 56 +
STACK CFI 95a6 .cfa: $rsp 48 +
STACK CFI 95a7 .cfa: $rsp 40 +
STACK CFI 95a9 .cfa: $rsp 32 +
STACK CFI 95ab .cfa: $rsp 24 +
STACK CFI 95ad .cfa: $rsp 16 +
STACK CFI 95af .cfa: $rsp 8 +
STACK CFI 95b0 .cfa: $rsp 112 +
STACK CFI INIT a8f0 13 .cfa: $rsp 8 + .ra: .cfa -8 + ^
STACK CFI INIT a910 20 .cfa: $rsp 8 + .ra: .cfa -8 + ^
STACK CFI a918 $rbx: .cfa -16 + ^ .cfa: $rsp 16 +
STACK CFI a92b .cfa: $rsp 8 +
STACK CFI INIT 9640 bc .cfa: $rsp 8 + .ra: .cfa -8 + ^
STACK CFI 9651 $r15: .cfa -16 + ^ .cfa: $rsp 16 +
STACK CFI 9653 $r14: .cfa -24 + ^ .cfa: $rsp 24 +
STACK CFI 965b $r13: .cfa -32 + ^ .cfa: $rsp 32 +
STACK CFI 965d $r12: .cfa -40 + ^ .cfa: $rsp 40 +
STACK CFI 9661 $rbp: .cfa -48 + ^ .cfa: $rsp 48 +
STACK CFI 9662 $rbx: .cfa -56 + ^ .cfa: $rsp 56 +
STACK CFI 9666 .cfa: $rsp 64 +
STACK CFI 96ed .cfa: $rsp 56 +
STACK CFI 96f1 $rbx: $rbx .cfa: $rsp 48 +
STACK CFI 96f2 $rbp: $rbp .cfa: $rsp 40 +
STACK CFI 96f4 $r12: $r12 .cfa: $rsp 32 +
STACK CFI 96f6 $r13: $r13 .cfa: $rsp 24 +
STACK CFI 96f8 $r14: $r14 .cfa: $rsp 16 +
STACK CFI 96fa $r15: $r15 .cfa: $rsp 8 +
STACK CFI INIT 9700 bb .cfa: $rsp 8 + .ra: .cfa -8 + ^
STACK CFI 9718 $r15: .cfa -16 + ^ .cfa: $rsp 16 +
STACK CFI 971a $r14: .cfa -24 + ^ .cfa: $rsp 24 +
STACK CFI 971f $r13: .cfa -32 + ^ .cfa: $rsp 32 +
STACK CFI 9721 $r12: .cfa -40 + ^ .cfa: $rsp 40 +
STACK CFI 9725 $rbp: .cfa -48 + ^ .cfa: $rsp 48 +
STACK CFI 9726 $rbx: .cfa -56 + ^ .cfa: $rsp 56 +
STACK CFI 9730 .cfa: $rsp 64 +
STACK CFI 9743 .cfa: $rsp 56 +
STACK CFI 9744 $rbx: $rbx .cfa: $rsp 48 +
STACK CFI 9745 $rbp: $rbp .cfa: $rsp 40 +
STACK CFI 9747 $r12: $r12 .cfa: $rsp 32 +
STACK CFI 9749 $r13: $r13 .cfa: $rsp 24 +
STACK CFI 974b $r14: $r14 .cfa: $rsp 16 +
STACK CFI 974d $r15: $r15 .cfa: $rsp 8 +
STACK CFI 9758 $r12: .cfa -40 + ^ $r13: .cfa -32 + ^ $r14: .cfa -24 + ^ $r15: .cfa -16 + ^ $rbp: .cfa -48 + ^ $rbx: .cfa -56 + ^ .cfa: $rsp 64 +
STACK CFI INIT 97c0 685 .cfa: $rsp 8 + .ra: .cfa -8 + ^
STACK CFI 97c2 $r15: .cfa -16 + ^ .cfa: $rsp 16 +
STACK CFI 97c4 $r14: .cfa -24 + ^ .cfa: $rsp 24 +
STACK CFI 97cd $r13: .cfa -32 + ^ .cfa: $rsp 32 +
STACK CFI 97cf $r12: .cfa -40 + ^ .cfa: $rsp 40 +
STACK CFI 97d3 $rbp: .cfa -48 + ^ .cfa: $rsp 48 +
STACK CFI 97d4 $rbx: .cfa -56 + ^ .cfa: $rsp 56 +
STACK CFI 97db .cfa: $rsp 416 +
STACK CFI 9883 .cfa: $rsp 56 +
STACK CFI 9884 .cfa: $rsp 48 +
STACK CFI 9885 .cfa: $rsp 40 +
STACK CFI 9887 .cfa: $rsp 32 +
STACK CFI 9889 .cfa: $rsp 24 +
STACK CFI 988b .cfa: $rsp 16 +
STACK CFI 988d .cfa: $rsp 8 +
STACK CFI 9890 .cfa: $rsp 416 +
STACK CFI INIT 9e50 27 .cfa: $rsp 8 + .ra: .cfa -8 + ^
STACK CFI 9e51 $rbx: .cfa -16 + ^ .cfa: $rsp 16 +
STACK CFI 9e76 .cfa: $rsp 8 +
STACK CFI INIT 9e80 e3 .cfa: $rsp 8 + .ra: .cfa -8 + ^
STACK CFI 9e82 $r15: .cfa -16 + ^ .cfa: $rsp 16 +
STACK CFI 9e84 $r14: .cfa -24 + ^ .cfa: $rsp 24 +
STACK CFI 9e89 $r13: .cfa -32 + ^ .cfa: $rsp 32 +
STACK CFI 9e8b $r12: .cfa -40 + ^ .cfa: $rsp 40 +
STACK CFI 9e8f $rbp: .cfa -48 + ^ .cfa: $rsp 48 +
STACK CFI 9e90 $rbx: .cfa -56 + ^ .cfa: $rsp 56 +
STACK CFI 9ea2 .cfa: $rsp 112 +
STACK CFI 9f0e .cfa: $rsp 56 +
STACK CFI 9f0f .cfa: $rsp 48 +
STACK CFI 9f10 .cfa: $rsp 40 +
STACK CFI 9f12 .cfa: $rsp 32 +
STACK CFI 9f14 .cfa: $rsp 24 +
STACK CFI 9f16 .cfa: $rsp 16 +
STACK CFI 9f18 .cfa: $rsp 8 +
STACK CFI 9f20 .cfa: $rsp 112 +
STACK CFI INIT 9f70 d1 .cfa: $rsp 8 + .ra: .cfa -8 + ^
STACK CFI 9f72 $r14: .cfa -16 + ^ .cfa: $rsp 16 +
STACK CFI 9f74 $r13: .cfa -24 + ^ .cfa: $rsp 24 +
STACK CFI 9f79 $r12: .cfa -32 + ^ .cfa: $rsp 32 +
STACK CFI 9f7a $rbp: .cfa -40 + ^ .cfa: $rsp 40 +
STACK CFI 9f7e $rbx: .cfa -48 + ^ .cfa: $rsp 48 +
STACK CFI 9f8f .cfa: $rsp 80 +
STACK CFI 9fec .cfa: $rsp 48 +
STACK CFI 9fed .cfa: $rsp 40 +
STACK CFI 9fee .cfa: $rsp 32 +
STACK CFI 9ff0 .cfa: $rsp 24 +
STACK CFI 9ff2 .cfa: $rsp 16 +
STACK CFI 9ff4 .cfa: $rsp 8 +
STACK CFI 9ff8 .cfa: $rsp 80 +
STACK CFI INIT a050 638 .cfa: $rsp 8 + .ra: .cfa -8 + ^
STACK CFI a052 $r15: .cfa -16 + ^ .cfa: $rsp 16 +
STACK CFI a054 $r14: .cfa -24 + ^ .cfa: $rsp 24 +
STACK CFI a056 $r13: .cfa -32 + ^ .cfa: $rsp 32 +
STACK CFI a058 $r12: .cfa -40 + ^ .cfa: $rsp 40 +
STACK CFI a05c $rbp: .cfa -48 + ^ .cfa: $rsp 48 +
STACK CFI a05d $rbx: .cfa -56 + ^ .cfa: $rsp 56 +
STACK CFI a064 .cfa: $rsp 368 +
STACK CFI a120 .cfa: $rsp 56 +
STACK CFI a121 .cfa: $rsp 48 +
STACK CFI a122 .cfa: $rsp 40 +
STACK CFI a124 .cfa: $rsp 32 +
STACK CFI a126 .cfa: $rsp 24 +
STACK CFI a128 .cfa: $rsp 16 +
STACK CFI a12a .cfa: $rsp 8 +
STACK CFI a12b .cfa: $rsp 368 +
STACK CFI INIT a930 288 .cfa: $rsp 8 + .ra: .cfa -8 + ^
STACK CFI a982 $r15: .cfa -16 + ^ .cfa: $rsp 16 +
STACK CFI a984 $r14: .cfa -24 + ^ .cfa: $rsp 24 +
STACK CFI a989 $r13: .cfa -32 + ^ .cfa: $rsp 32 +
STACK CFI a98b $r12: .cfa -40 + ^ .cfa: $rsp 40 +
STACK CFI a996 $rbp: .cfa -48 + ^ .cfa: $rsp 48 +
STACK CFI a997 $rbx: .cfa -56 + ^ .cfa: $rsp 56 +
STACK CFI a9a4 .cfa: $rsp 80 +
STACK CFI aa69 .cfa: $rsp 56 +
STACK CFI aa6a $rbx: $rbx .cfa: $rsp 48 +
STACK CFI aa6b $rbp: $rbp .cfa: $rsp 40 +
STACK CFI aa6d $r12: $r12 .cfa: $rsp 32 +
STACK CFI aa6f $r13: $r13 .cfa: $rsp 24 +
STACK CFI aa71 $r14: $r14 .cfa: $rsp 16 +
STACK CFI aa73 $r15: $r15 .cfa: $rsp 8 +
STACK CFI aa75 $r12: .cfa -40 + ^ $r13: .cfa -32 + ^ $r14: .cfa -24 + ^ $r15: .cfa -16 + ^ $rbp: .cfa -48 + ^ $rbx: .cfa -56 + ^ .cfa: $rsp 80 +
STACK CFI INIT a690 251 .cfa: $rsp 8 + .ra: .cfa -8 + ^
STACK CFI a692 $r15: .cfa -16 + ^ .cfa: $rsp 16 +
STACK CFI a694 $r14: .cfa -24 + ^ .cfa: $rsp 24 +
STACK CFI a696 $r13: .cfa -32 + ^ .cfa: $rsp 32 +
STACK CFI a698 $r12: .cfa -40 + ^ .cfa: $rsp 40 +
STACK CFI a699 $rbp: .cfa -48 + ^ .cfa: $rsp 48 +
STACK CFI a69a $rbx: .cfa -56 + ^ .cfa: $rsp 56 +
STACK CFI a6a1 .cfa: $rsp 304 +
STACK CFI a815 .cfa: $rsp 56 +
STACK CFI a816 .cfa: $rsp 48 +
STACK CFI a817 .cfa: $rsp 40 +
STACK CFI a819 .cfa: $rsp 32 +
STACK CFI a81b .cfa: $rsp 24 +
STACK CFI a81d .cfa: $rsp 16 +
STACK CFI a81f .cfa: $rsp 8 +
STACK CFI a820 .cfa: $rsp 304 +
STACK CFI INIT 1900 4a .cfa: $rsp 8 + .ra: .cfa -8 + ^
STACK CFI 1902 $r13: .cfa -16 + ^ .cfa: $rsp 16 +
STACK CFI 1904 $r12: .cfa -24 + ^ .cfa: $rsp 24 +
STACK CFI 1908 $rbp: .cfa -32 + ^ .cfa: $rsp 32 +
STACK CFI 1909 $rbx: .cfa -40 + ^ .cfa: $rsp 40 +
STACK CFI 190d .cfa: $rsp 48 +
STACK CFI 1943 .cfa: $rsp 40 +
STACK CFI 1944 .cfa: $rsp 32 +
STACK CFI 1945 .cfa: $rsp 24 +
STACK CFI 1947 .cfa: $rsp 16 +
STACK CFI 1949 .cfa: $rsp 8 +
STACK CFI INIT 194a 20 .cfa: $rsp 8 + .ra: .cfa -8 + ^
STACK CFI 1952 .cfa: $rsp 16 +
STACK CFI INIT 196a 20 .cfa: $rsp 8 + .ra: .cfa -8 + ^
STACK CFI 1972 .cfa: $rsp 16 +
STACK CFI INIT 198a 1d .cfa: $rsp 8 + .ra: .cfa -8 + ^
STACK CFI 1990 .cfa: $rsp 16 +
STACK CFI 1995 .cfa: $rsp 8 +
STACK CFI INIT 19a8 20 .cfa: $rsp 8 + .ra: .cfa -8 + ^
STACK CFI 19b0 .cfa: $rsp 16 +
STACK CFI INIT 19c8 20 .cfa: $rsp 8 + .ra: .cfa -8 + ^
STACK CFI 19d0 .cfa: $rsp 16 +
STACK CFI INIT 19e8 2c .cfa: $rsp 8 + .ra: .cfa -8 + ^
STACK CFI 19e9 $rbp: .cfa -16 + ^ .cfa: $rsp 16 +
STACK CFI 19ea $rbx: .cfa -24 + ^ .cfa: $rsp 24 +
STACK CFI 19ef .cfa: $rsp 32 +
STACK CFI 1a0a .cfa: $rsp 24 +
STACK CFI 1a0e .cfa: $rsp 16 +
STACK CFI 1a0f .cfa: $rsp 8 +
STACK CFI INIT 1a14 1ec .cfa: $rsp 8 + .ra: .cfa -8 + ^
STACK CFI 1a16 $r15: .cfa -16 + ^ .cfa: $rsp 16 +
STACK CFI 1a18 $r14: .cfa -24 + ^ .cfa: $rsp 24 +
STACK CFI 1a1a $r13: .cfa -32 + ^ .cfa: $rsp 32 +
STACK CFI 1a1c $r12: .cfa -40 + ^ .cfa: $rsp 40 +
STACK CFI 1a20 $rbp: .cfa -48 + ^ .cfa: $rsp 48 +
STACK CFI 1a21 $rbx: .cfa -56 + ^ .cfa: $rsp 56 +
STACK CFI 1a2a .cfa: $rsp 112 +
STACK CFI 1bf5 .cfa: $rsp 56 +
STACK CFI 1bf6 .cfa: $rsp 48 +
STACK CFI 1bf7 .cfa: $rsp 40 +
STACK CFI 1bf9 .cfa: $rsp 32 +
STACK CFI 1bfb .cfa: $rsp 24 +
STACK CFI 1bfd .cfa: $rsp 16 +
STACK CFI 1bff .cfa: $rsp 8 +
STACK CFI INIT 1c00 67 .cfa: $rsp 8 + .ra: .cfa -8 + ^
STACK CFI 1c02 $r12: .cfa -16 + ^ .cfa: $rsp 16 +
STACK CFI 1c03 $rbp: .cfa -24 + ^ .cfa: $rsp 24 +
STACK CFI 1c07 $rbx: .cfa -32 + ^ .cfa: $rsp 32 +
STACK CFI 1c11 .cfa: $rsp 304 +
STACK CFI 1c62 .cfa: $rsp 32 +
STACK CFI 1c63 .cfa: $rsp 24 +
STACK CFI 1c64 .cfa: $rsp 16 +
STACK CFI 1c66 .cfa: $rsp 8 +
STACK CFI INIT f400 259 .cfa: $rsp 8 + .ra: .cfa -8 + ^
STACK CFI f402 $r15: .cfa -16 + ^ .cfa: $rsp 16 +
STACK CFI f404 $r14: .cfa -24 + ^ .cfa: $rsp 24 +
STACK CFI f40a $r13: .cfa -32 + ^ .cfa: $rsp 32 +
STACK CFI f40c $r12: .cfa -40 + ^ .cfa: $rsp 40 +
STACK CFI f410 $rbp: .cfa -48 + ^ .cfa: $rsp 48 +
STACK CFI f411 $rbx: .cfa -56 + ^ .cfa: $rsp 56 +
STACK CFI f418 .cfa: $rsp 64 +
STACK CFI f47d .cfa: $rsp 56 +
STACK CFI f480 .cfa: $rsp 48 +
STACK CFI f481 .cfa: $rsp 40 +
STACK CFI f483 .cfa: $rsp 32 +
STACK CFI f485 .cfa: $rsp 24 +
STACK CFI f487 .cfa: $rsp 16 +
STACK CFI f489 .cfa: $rsp 8 +
STACK CFI f490 .cfa: $rsp 64 +
STACK CFI f563 .cfa: $rsp 56 +
STACK CFI f564 .cfa: $rsp 48 +
STACK CFI f56a .cfa: $rsp 40 +
STACK CFI f56c .cfa: $rsp 32 +
STACK CFI f56e .cfa: $rsp 24 +
STACK CFI f570 .cfa: $rsp 16 +
STACK CFI f572 .cfa: $rsp 8 +
STACK CFI f578 .cfa: $rsp 64 +
STACK CFI f62d .cfa: $rsp 56 +
STACK CFI f630 .cfa: $rsp 48 +
STACK CFI f631 .cfa: $rsp 40 +
STACK CFI f633 .cfa: $rsp 32 +
STACK CFI f635 .cfa: $rsp 24 +
STACK CFI f637 .cfa: $rsp 16 +
STACK CFI f639 .cfa: $rsp 8 +
STACK CFI f63a .cfa: $rsp 64 +
STACK CFI INIT f660 257 .cfa: $rsp 8 + .ra: .cfa -8 + ^
STACK CFI f682 $r15: .cfa -16 + ^ .cfa: $rsp 16 +
STACK CFI f684 $r14: .cfa -24 + ^ .cfa: $rsp 24 +
STACK CFI f686 $r13: .cfa -32 + ^ .cfa: $rsp 32 +
STACK CFI f688 $r12: .cfa -40 + ^ .cfa: $rsp 40 +
STACK CFI f689 $rbp: .cfa -48 + ^ .cfa: $rsp 48 +
STACK CFI f68a $rbx: .cfa -56 + ^ .cfa: $rsp 56 +
STACK CFI f691 .cfa: $rsp 80 +
STACK CFI f6c1 .cfa: $rsp 56 +
STACK CFI f6c2 $rbx: $rbx .cfa: $rsp 48 +
STACK CFI f6c3 $rbp: $rbp .cfa: $rsp 40 +
STACK CFI f6c5 $r12: $r12 .cfa: $rsp 32 +
STACK CFI f6c7 $r13: $r13 .cfa: $rsp 24 +
STACK CFI f6c9 $r14: $r14 .cfa: $rsp 16 +
STACK CFI f6cb $r15: $r15 .cfa: $rsp 8 +
STACK CFI f6d0 $r12: .cfa -40 + ^ $r13: .cfa -32 + ^ $r14: .cfa -24 + ^ $r15: .cfa -16 + ^ $rbp: .cfa -48 + ^ $rbx: .cfa -56 + ^ .cfa: $rsp 80 +
STACK CFI INIT f8c0 250 .cfa: $rsp 8 + .ra: .cfa -8 + ^
STACK CFI f8c2 $r15: .cfa -16 + ^ .cfa: $rsp 16 +
STACK CFI f8c4 $r14: .cfa -24 + ^ .cfa: $rsp 24 +
STACK CFI f8c6 $r13: .cfa -32 + ^ .cfa: $rsp 32 +
STACK CFI f8c8 $r12: .cfa -40 + ^ .cfa: $rsp 40 +
STACK CFI f8cc $rbp: .cfa -48 + ^ .cfa: $rsp 48 +
STACK CFI f8cd $rbx: .cfa -56 + ^ .cfa: $rsp 56 +
STACK CFI f8d4 .cfa: $rsp 80 +
STACK CFI f980 .cfa: $rsp 56 +
STACK CFI f981 .cfa: $rsp 48 +
STACK CFI f982 .cfa: $rsp 40 +
STACK CFI f984 .cfa: $rsp 32 +
STACK CFI f986 .cfa: $rsp 24 +
STACK CFI f988 .cfa: $rsp 16 +
STACK CFI f98a .cfa: $rsp 8 +
STACK CFI f990 .cfa: $rsp 80 +
STACK CFI INIT abc0 fbb .cfa: $rsp 8 + .ra: .cfa -8 + ^
STACK CFI abc2 $r15: .cfa -16 + ^ .cfa: $rsp 16 +
STACK CFI abc4 $r14: .cfa -24 + ^ .cfa: $rsp 24 +
STACK CFI abc6 $r13: .cfa -32 + ^ .cfa: $rsp 32 +
STACK CFI abc8 $r12: .cfa -40 + ^ .cfa: $rsp 40 +
STACK CFI abc9 $rbp: .cfa -48 + ^ .cfa: $rsp 48 +
STACK CFI abca $rbx: .cfa -56 + ^ .cfa: $rsp 56 +
STACK CFI abd1 .cfa: $rsp 2464 +
STACK CFI af7b .cfa: $rsp 56 +
STACK CFI af7c .cfa: $rsp 48 +
STACK CFI af7d .cfa: $rsp 40 +
STACK CFI af7f .cfa: $rsp 32 +
STACK CFI af81 .cfa: $rsp 24 +
STACK CFI af83 .cfa: $rsp 16 +
STACK CFI af85 .cfa: $rsp 8 +
STACK CFI af86 .cfa: $rsp 2464 +
STACK CFI INIT bb80 227f .cfa: $rsp 8 + .ra: .cfa -8 + ^
STACK CFI bb81 $rbp: .cfa -16 + ^ .cfa: $rsp 16 +
STACK CFI bb89 .cfa: $rbp 16 +
STACK CFI bb91 $r12: .cfa -48 + ^ $r13: .cfa -40 + ^ $r14: .cfa -32 + ^ $r15: .cfa -24 + ^
STACK CFI bb96 $rbx: .cfa -56 + ^
STACK CFI bcdf .cfa: $rsp 8 +
STACK CFI bce0 .cfa: $rbp 16 +
STACK CFI INIT de00 566 .cfa: $rsp 8 + .ra: .cfa -8 + ^
STACK CFI de02 $r15: .cfa -16 + ^ .cfa: $rsp 16 +
STACK CFI de04 $r14: .cfa -24 + ^ .cfa: $rsp 24 +
STACK CFI de09 $r13: .cfa -32 + ^ .cfa: $rsp 32 +
STACK CFI de0b $r12: .cfa -40 + ^ .cfa: $rsp 40 +
STACK CFI de0c $rbp: .cfa -48 + ^ .cfa: $rsp 48 +
STACK CFI de0d $rbx: .cfa -56 + ^ .cfa: $rsp 56 +
STACK CFI de17 .cfa: $rsp 288 +
STACK CFI dfb2 .cfa: $rsp 56 +
STACK CFI dfb3 .cfa: $rsp 48 +
STACK CFI dfb4 .cfa: $rsp 40 +
STACK CFI dfb6 .cfa: $rsp 32 +
STACK CFI dfb8 .cfa: $rsp 24 +
STACK CFI dfba .cfa: $rsp 16 +
STACK CFI dfbc .cfa: $rsp 8 +
STACK CFI dfc0 .cfa: $rsp 288 +
STACK CFI INIT e370 6ba .cfa: $rsp 8 + .ra: .cfa -8 + ^
STACK CFI e372 $r15: .cfa -16 + ^ .cfa: $rsp 16 +
STACK CFI e374 $r14: .cfa -24 + ^ .cfa: $rsp 24 +
STACK CFI e379 $r13: .cfa -32 + ^ .cfa: $rsp 32 +
STACK CFI e37b $r12: .cfa -40 + ^ .cfa: $rsp 40 +
STACK CFI e37c $rbp: .cfa -48 + ^ .cfa: $rsp 48 +
STACK CFI e37d $rbx: .cfa -56 + ^ .cfa: $rsp 56 +
STACK CFI e386 .cfa: $rsp 576 +
STACK CFI e5ed .cfa: $rsp 56 +
STACK CFI e5ee .cfa: $rsp 48 +
STACK CFI e5ef .cfa: $rsp 40 +
STACK CFI e5f1 .cfa: $rsp 32 +
STACK CFI e5f3 .cfa: $rsp 24 +
STACK CFI e5f5 .cfa: $rsp 16 +
STACK CFI e5f7 .cfa: $rsp 8 +
STACK CFI e5f8 .cfa: $rsp 576 +
STACK CFI INIT ea30 690 .cfa: $rsp 8 + .ra: .cfa -8 + ^
STACK CFI ea32 $r15: .cfa -16 + ^ .cfa: $rsp 16 +
STACK CFI ea34 $r14: .cfa -24 + ^ .cfa: $rsp 24 +
STACK CFI ea39 $r13: .cfa -32 + ^ .cfa: $rsp 32 +
STACK CFI ea3b $r12: .cfa -40 + ^ .cfa: $rsp 40 +
STACK CFI ea3f $rbp: .cfa -48 + ^ .cfa: $rsp 48 +
STACK CFI ea40 $rbx: .cfa -56 + ^ .cfa: $rsp 56 +
STACK CFI ea4c .cfa: $rsp 544 +
STACK CFI eaff .cfa: $rsp 56 +
STACK CFI eb00 .cfa: $rsp 48 +
STACK CFI eb01 .cfa: $rsp 40 +
STACK CFI eb03 .cfa: $rsp 32 +
STACK CFI eb05 .cfa: $rsp 24 +
STACK CFI eb07 .cfa: $rsp 16 +
STACK CFI eb09 .cfa: $rsp 8 +
STACK CFI eb10 .cfa: $rsp 544 +
STACK CFI INIT f0c0 119 .cfa: $rsp 8 + .ra: .cfa -8 + ^
STACK CFI f0c1 $rbp: .cfa -16 + ^ .cfa: $rsp 16 +
STACK CFI f0c8 .cfa: $rbp 16 +
STACK CFI f0cf $r12: .cfa -40 + ^ $r13: .cfa -32 + ^ $r14: .cfa -24 + ^ $rbx: .cfa -48 + ^
STACK CFI f196 .cfa: $rsp 8 +
STACK CFI f197 .cfa: $rbp 16 +
STACK CFI INIT f1e0 119 .cfa: $rsp 8 + .ra: .cfa -8 + ^
STACK CFI f1e1 $rbp: .cfa -16 + ^ .cfa: $rsp 16 +
STACK CFI f1e8 .cfa: $rbp 16 +
STACK CFI f1ef $r12: .cfa -40 + ^ $r13: .cfa -32 + ^ $r14: .cfa -24 + ^ $rbx: .cfa -48 + ^
STACK CFI f2b6 .cfa: $rsp 8 +
STACK CFI f2b7 .cfa: $rbp 16 +
STACK CFI INIT f300 36 .cfa: $rsp 8 + .ra: .cfa -8 + ^
STACK CFI f304 .cfa: $rsp 24 +
STACK CFI f30a .cfa: $rsp 32 +
STACK CFI f30e .cfa: $rsp 40 +
STACK CFI f314 .cfa: $rsp 48 +
STACK CFI f316 .cfa: $rsp 56 +
STACK CFI f31b .cfa: $rsp 64 +
STACK CFI f335 .cfa: $rsp 8 +
STACK CFI INIT f340 35 .cfa: $rsp 8 + .ra: .cfa -8 + ^
STACK CFI f344 .cfa: $rsp 24 +
STACK CFI f34a .cfa: $rsp 32 +
STACK CFI f34e .cfa: $rsp 40 +
STACK CFI f354 .cfa: $rsp 48 +
STACK CFI f356 .cfa: $rsp 56 +
STACK CFI f35b .cfa: $rsp 64 +
STACK CFI f374 .cfa: $rsp 8 +
STACK CFI INIT f380 34 .cfa: $rsp 8 + .ra: .cfa -8 + ^
STACK CFI f384 .cfa: $rsp 24 +
STACK CFI f38a .cfa: $rsp 32 +
STACK CFI f38e .cfa: $rsp 40 +
STACK CFI f394 .cfa: $rsp 48 +
STACK CFI f398 .cfa: $rsp 56 +
STACK CFI f39a .cfa: $rsp 64 +
STACK CFI f3b3 .cfa: $rsp 8 +
STACK CFI INIT f3c0 33 .cfa: $rsp 8 + .ra: .cfa -8 + ^
STACK CFI f3c4 .cfa: $rsp 24 +
STACK CFI f3ca .cfa: $rsp 32 +
STACK CFI f3ce .cfa: $rsp 40 +
STACK CFI f3d4 .cfa: $rsp 48 +
STACK CFI f3d8 .cfa: $rsp 56 +
STACK CFI f3da .cfa: $rsp 64 +
STACK CFI f3f2 .cfa: $rsp 8 +
STACK CFI INIT fb10 23 .cfa: $rsp 8 + .ra: .cfa -8 + ^
STACK CFI fb29 .cfa: $rsp 16 +
STACK CFI INIT fb40 1a .cfa: $rsp 8 + .ra: .cfa -8 + ^
STACK CFI INIT fb60 78 .cfa: $rsp 8 + .ra: .cfa -8 + ^
STACK CFI fb62 $r12: .cfa -16 + ^ .cfa: $rsp 16 +
STACK CFI fb63 $rbp: .cfa -24 + ^ .cfa: $rsp 24 +
STACK CFI fb67 $rbx: .cfa -32 + ^ .cfa: $rsp 32 +
STACK CFI fb9f .cfa: $rsp 24 +
STACK CFI fba0 .cfa: $rsp 16 +
STACK CFI fba2 .cfa: $rsp 8 +
STACK CFI fba8 .cfa: $rsp 32 +
STACK CFI fbb5 .cfa: $rsp 24 +
STACK CFI fbb6 .cfa: $rsp 16 +
STACK CFI fbb8 .cfa: $rsp 8 +
STACK CFI fbb9 .cfa: $rsp 32 +
STACK CFI INIT fbe0 2c .cfa: $rsp 8 + .ra: .cfa -8 + ^
STACK CFI fbf4 .cfa: $rsp 16 +
STACK CFI INIT fc10 5d .cfa: $rsp 8 + .ra: .cfa -8 + ^
STACK CFI fc12 $r12: .cfa -16 + ^ .cfa: $rsp 16 +
STACK CFI fc16 $rbp: .cfa -24 + ^ .cfa: $rsp 24 +
STACK CFI fc17 $rbx: .cfa -32 + ^ .cfa: $rsp 32 +
STACK CFI fc5a .cfa: $rsp 24 +
STACK CFI fc5b .cfa: $rsp 16 +
STACK CFI fc5d .cfa: $rsp 8 +
STACK CFI fc60 .cfa: $rsp 32 +
STACK CFI INIT fc70 15 .cfa: $rsp 8 + .ra: .cfa -8 + ^
STACK CFI INIT fc90 b6 .cfa: $rsp 8 + .ra: .cfa -8 + ^
STACK CFI fc92 $r13: .cfa -16 + ^ .cfa: $rsp 16 +
STACK CFI fc94 $r12: .cfa -24 + ^ .cfa: $rsp 24 +
STACK CFI fc95 $rbp: .cfa -32 + ^ .cfa: $rsp 32 +
STACK CFI fc96 $rbx: .cfa -40 + ^ .cfa: $rsp 40 +
STACK CFI fc9a .cfa: $rsp 48 +
STACK CFI fcce .cfa: $rsp 40 +
STACK CFI fccf .cfa: $rsp 32 +
STACK CFI fcd0 .cfa: $rsp 24 +
STACK CFI fcd2 .cfa: $rsp 16 +
STACK CFI fcd4 .cfa: $rsp 8 +
STACK CFI fcd8 .cfa: $rsp 48 +
STACK CFI INIT fd50 ff .cfa: $rsp 8 + .ra: .cfa -8 + ^
STACK CFI fd51 $rbp: .cfa -16 + ^ .cfa: $rsp 16 +
STACK CFI fd52 $rbx: .cfa -24 + ^ .cfa: $rsp 24 +
STACK CFI fd56 .cfa: $rsp 32 +
STACK CFI fdd9 .cfa: $rsp 24 +
STACK CFI fdda .cfa: $rsp 16 +
STACK CFI fddb .cfa: $rsp 8 +
STACK CFI fde0 .cfa: $rsp 32 +
STACK CFI fded .cfa: $rsp 24 +
STACK CFI fdf0 .cfa: $rsp 16 +
STACK CFI fdf1 .cfa: $rsp 8 +
STACK CFI fdf2 .cfa: $rsp 32 +
STACK CFI INIT fe50 fc .cfa: $rsp 8 + .ra: .cfa -8 + ^
STACK CFI fe52 $r15: .cfa -16 + ^ .cfa: $rsp 16 +
STACK CFI fe54 $r14: .cfa -24 + ^ .cfa: $rsp 24 +
STACK CFI fe56 $r13: .cfa -32 + ^ .cfa: $rsp 32 +
STACK CFI fe58 $r12: .cfa -40 + ^ .cfa: $rsp 40 +
STACK CFI fe59 $rbp: .cfa -48 + ^ .cfa: $rsp 48 +
STACK CFI fe5a $rbx: .cfa -56 + ^ .cfa: $rsp 56 +
STACK CFI fe5e .cfa: $rsp 80 +
STACK CFI ff16 .cfa: $rsp 56 +
STACK CFI ff17 .cfa: $rsp 48 +
STACK CFI ff18 .cfa: $rsp 40 +
STACK CFI ff1a .cfa: $rsp 32 +
STACK CFI ff1c .cfa: $rsp 24 +
STACK CFI ff1e .cfa: $rsp 16 +
STACK CFI ff20 .cfa: $rsp 8 +
STACK CFI ff21 .cfa: $rsp 80 +
STACK CFI INIT ff50 fb .cfa: $rsp 8 + .ra: .cfa -8 + ^
STACK CFI ff52 $r15: .cfa -16 + ^ .cfa: $rsp 16 +
STACK CFI ff54 $r14: .cfa -24 + ^ .cfa: $rsp 24 +
STACK CFI ff56 $r13: .cfa -32 + ^ .cfa: $rsp 32 +
STACK CFI ff58 $r12: .cfa -40 + ^ .cfa: $rsp 40 +
STACK CFI ff59 $rbp: .cfa -48 + ^ .cfa: $rsp 48 +
STACK CFI ff5a $rbx: .cfa -56 + ^ .cfa: $rsp 56 +
STACK CFI ff5e .cfa: $rsp 80 +
STACK CFI 10015 .cfa: $rsp 56 +
STACK CFI 10016 .cfa: $rsp 48 +
STACK CFI 10017 .cfa: $rsp 40 +
STACK CFI 10019 .cfa: $rsp 32 +
STACK CFI 1001b .cfa: $rsp 24 +
STACK CFI 1001d .cfa: $rsp 16 +
STACK CFI 1001f .cfa: $rsp 8 +
STACK CFI 10020 .cfa: $rsp 80 +
STACK CFI INIT 10050 41 .cfa: $rsp 8 + .ra: .cfa -8 + ^
STACK CFI 10051 $rbx: .cfa -16 + ^ .cfa: $rsp 16 +
STACK CFI 10071 .cfa: $rsp 8 +
STACK CFI 10072 .cfa: $rsp 16 +
STACK CFI INIT 100a0 238 .cfa: $rsp 8 + .ra: .cfa -8 + ^
STACK CFI 100a2 $r15: .cfa -16 + ^ .cfa: $rsp 16 +
STACK CFI 100a4 $r14: .cfa -24 + ^ .cfa: $rsp 24 +
STACK CFI 100a6 $r13: .cfa -32 + ^ .cfa: $rsp 32 +
STACK CFI 100a8 $r12: .cfa -40 + ^ .cfa: $rsp 40 +
STACK CFI 100a9 $rbp: .cfa -48 + ^ .cfa: $rsp 48 +
STACK CFI 100aa $rbx: .cfa -56 + ^ .cfa: $rsp 56 +
STACK CFI 100ae .cfa: $rsp 128 +
STACK CFI 101a5 .cfa: $rsp 56 +
STACK CFI 101a6 .cfa: $rsp 48 +
STACK CFI 101a7 .cfa: $rsp 40 +
STACK CFI 101a9 .cfa: $rsp 32 +
STACK CFI 101ab .cfa: $rsp 24 +
STACK CFI 101ad .cfa: $rsp 16 +
STACK CFI 101af .cfa: $rsp 8 +
STACK CFI 101b0 .cfa: $rsp 128 +
STACK CFI INIT 102e0 238 .cfa: $rsp 8 + .ra: .cfa -8 + ^
STACK CFI 102e2 $r15: .cfa -16 + ^ .cfa: $rsp 16 +
STACK CFI 102e4 $r14: .cfa -24 + ^ .cfa: $rsp 24 +
STACK CFI 102e6 $r13: .cfa -32 + ^ .cfa: $rsp 32 +
STACK CFI 102e8 $r12: .cfa -40 + ^ .cfa: $rsp 40 +
STACK CFI 102e9 $rbp: .cfa -48 + ^ .cfa: $rsp 48 +
STACK CFI 102ea $rbx: .cfa -56 + ^ .cfa: $rsp 56 +
STACK CFI 102ee .cfa: $rsp 128 +
STACK CFI 103dc .cfa: $rsp 56 +
STACK CFI 103dd .cfa: $rsp 48 +
STACK CFI 103de .cfa: $rsp 40 +
STACK CFI 103e0 .cfa: $rsp 32 +
STACK CFI 103e2 .cfa: $rsp 24 +
STACK CFI 103e4 .cfa: $rsp 16 +
STACK CFI 103e6 .cfa: $rsp 8 +
STACK CFI 103f0 .cfa: $rsp 128 +
STACK CFI INIT 10520 89 .cfa: $rsp 8 + .ra: .cfa -8 + ^
STACK CFI 10524 .cfa: $rsp 16 +
STACK CFI 10547 .cfa: $rsp 8 +
STACK CFI 1054c .cfa: $rsp 16 +
STACK CFI INIT 105b0 df .cfa: $rsp 8 + .ra: .cfa -8 + ^
STACK CFI 105b2 $r12: .cfa -16 + ^ .cfa: $rsp 16 +
STACK CFI 105b3 $rbp: .cfa -24 + ^ .cfa: $rsp 24 +
STACK CFI 105b4 $rbx: .cfa -32 + ^ .cfa: $rsp 32 +
STACK CFI 105b8 .cfa: $rsp 64 +
STACK CFI 10615 .cfa: $rsp 32 +
STACK CFI 10616 .cfa: $rsp 24 +
STACK CFI 10617 .cfa: $rsp 16 +
STACK CFI 10619 .cfa: $rsp 8 +
STACK CFI 10620 .cfa: $rsp 64 +
STACK CFI INIT 10690 b1 .cfa: $rsp 8 + .ra: .cfa -8 + ^
STACK CFI 10692 $r15: .cfa -16 + ^ .cfa: $rsp 16 +
STACK CFI 10694 $r14: .cfa -24 + ^ .cfa: $rsp 24 +
STACK CFI 10698 $r13: .cfa -32 + ^ .cfa: $rsp 32 +
STACK CFI 1069a $r12: .cfa -40 + ^ .cfa: $rsp 40 +
STACK CFI 1069e $rbp: .cfa -48 + ^ .cfa: $rsp 48 +
STACK CFI 1069f $rbx: .cfa -56 + ^ .cfa: $rsp 56 +
STACK CFI 106b2 .cfa: $rsp 96 +
STACK CFI 10729 .cfa: $rsp 56 +
STACK CFI 1072a .cfa: $rsp 48 +
STACK CFI 1072b .cfa: $rsp 40 +
STACK CFI 1072d .cfa: $rsp 32 +
STACK CFI 1072f .cfa: $rsp 24 +
STACK CFI 10731 .cfa: $rsp 16 +
STACK CFI 10733 .cfa: $rsp 8 +
STACK CFI 10738 .cfa: $rsp 96 +
STACK CFI INIT 10750 7b .cfa: $rsp 8 + .ra: .cfa -8 + ^
STACK CFI 10751 $rbx: .cfa -16 + ^ .cfa: $rsp 16 +
STACK CFI 1075d .cfa: $rsp 64 +
STACK CFI 107c4 .cfa: $rsp 16 +
STACK CFI 107c5 .cfa: $rsp 8 +
STACK CFI 107c6 .cfa: $rsp 64 +
STACK CFI INIT 107d0 509 .cfa: $rsp 8 + .ra: .cfa -8 + ^
STACK CFI 107d2 $r14: .cfa -16 + ^ .cfa: $rsp 16 +
STACK CFI 107d4 $r13: .cfa -24 + ^ .cfa: $rsp 24 +
STACK CFI 107d6 $r12: .cfa -32 + ^ .cfa: $rsp 32 +
STACK CFI 107d7 $rbp: .cfa -40 + ^ .cfa: $rsp 40 +
STACK CFI 107db $rbx: .cfa -48 + ^ .cfa: $rsp 48 +
STACK CFI 107e2 .cfa: $rsp 80 +
STACK CFI 10b78 .cfa: $rsp 48 +
STACK CFI 10b79 .cfa: $rsp 40 +
STACK CFI 10b7a .cfa: $rsp 32 +
STACK CFI 10b7c .cfa: $rsp 24 +
STACK CFI 10b7e .cfa: $rsp 16 +
STACK CFI 10b80 .cfa: $rsp 8 +
STACK CFI 10b88 .cfa: $rsp 80 +
STACK CFI INIT 110a0 153 .cfa: $rsp 8 + .ra: .cfa -8 + ^
STACK CFI 110a7 $r15: .cfa -16 + ^ .cfa: $rsp 16 +
STACK CFI 110a9 $r14: .cfa -24 + ^ .cfa: $rsp 24 +
STACK CFI 110ab $r13: .cfa -32 + ^ .cfa: $rsp 32 +
STACK CFI 110ad $r12: .cfa -40 + ^ .cfa: $rsp 40 +
STACK CFI 110b1 $rbp: .cfa -48 + ^ .cfa: $rsp 48 +
STACK CFI 110b2 $rbx: .cfa -56 + ^ .cfa: $rsp 56 +
STACK CFI 110b9 .cfa: $rsp 64 +
STACK CFI 110e8 .cfa: $rsp 56 +
STACK CFI 110e9 $rbx: $rbx .cfa: $rsp 48 +
STACK CFI 110ea $rbp: $rbp .cfa: $rsp 40 +
STACK CFI 110ec $r12: $r12 .cfa: $rsp 32 +
STACK CFI 110ee $r13: $r13 .cfa: $rsp 24 +
STACK CFI 110f0 $r14: $r14 .cfa: $rsp 16 +
STACK CFI 110f2 $r15: $r15 .cfa: $rsp 8 +
STACK CFI 110f8 $r12: .cfa -40 + ^ $r13: .cfa -32 + ^ $r14: .cfa -24 + ^ $r15: .cfa -16 + ^ $rbp: .cfa -48 + ^ $rbx: .cfa -56 + ^ .cfa: $rsp 64 +
STACK CFI INIT 10ce0 1dc .cfa: $rsp 8 + .ra: .cfa -8 + ^
STACK CFI 10ce2 $r15: .cfa -16 + ^ .cfa: $rsp 16 +
STACK CFI 10ce4 $r14: .cfa -24 + ^ .cfa: $rsp 24 +
STACK CFI 10ce9 $r13: .cfa -32 + ^ .cfa: $rsp 32 +
STACK CFI 10ceb $r12: .cfa -40 + ^ .cfa: $rsp 40 +
STACK CFI 10cec $rbp: .cfa -48 + ^ .cfa: $rsp 48 +
STACK CFI 10ced $rbx: .cfa -56 + ^ .cfa: $rsp 56 +
STACK CFI 10cf4 .cfa: $rsp 112 +
STACK CFI 10dba .cfa: $rsp 56 +
STACK CFI 10dbb .cfa: $rsp 48 +
STACK CFI 10dbc .cfa: $rsp 40 +
STACK CFI 10dbe .cfa: $rsp 32 +
STACK CFI 10dc0 .cfa: $rsp 24 +
STACK CFI 10dc2 .cfa: $rsp 16 +
STACK CFI 10dc4 .cfa: $rsp 8 +
STACK CFI 10dc8 .cfa: $rsp 112 +
STACK CFI INIT 10ec0 1dc .cfa: $rsp 8 + .ra: .cfa -8 + ^
STACK CFI 10ec2 $r15: .cfa -16 + ^ .cfa: $rsp 16 +
STACK CFI 10ec4 $r14: .cfa -24 + ^ .cfa: $rsp 24 +
STACK CFI 10ec9 $r13: .cfa -32 + ^ .cfa: $rsp 32 +
STACK CFI 10ecb $r12: .cfa -40 + ^ .cfa: $rsp 40 +
STACK CFI 10ecf $rbp: .cfa -48 + ^ .cfa: $rsp 48 +
STACK CFI 10ed0 $rbx: .cfa -56 + ^ .cfa: $rsp 56 +
STACK CFI 10ed4 .cfa: $rsp 112 +
STACK CFI 10f99 .cfa: $rsp 56 +
STACK CFI 10f9a .cfa: $rsp 48 +
STACK CFI 10f9b .cfa: $rsp 40 +
STACK CFI 10f9d .cfa: $rsp 32 +
STACK CFI 10f9f .cfa: $rsp 24 +
STACK CFI 10fa1 .cfa: $rsp 16 +
STACK CFI 10fa3 .cfa: $rsp 8 +
STACK CFI 10fa8 .cfa: $rsp 112 +
STACK CFI INIT 11200 1f .cfa: $rsp 8 + .ra: .cfa -8 + ^
STACK CFI 1120b .cfa: $rsp 16 +
STACK CFI 1121e .cfa: $rsp 8 +
STACK CFI INIT 11220 5 .cfa: $rsp 8 + .ra: .cfa -8 + ^
STACK CFI INIT 11230 461 .cfa: $rsp 8 + .ra: .cfa -8 + ^
STACK CFI 11232 $r15: .cfa -16 + ^ .cfa: $rsp 16 +
STACK CFI 11234 $r14: .cfa -24 + ^ .cfa: $rsp 24 +
STACK CFI 11236 $r13: .cfa -32 + ^ .cfa: $rsp 32 +
STACK CFI 11238 $r12: .cfa -40 + ^ .cfa: $rsp 40 +
STACK CFI 11239 $rbp: .cfa -48 + ^ .cfa: $rsp 48 +
STACK CFI 1123a $rbx: .cfa -56 + ^ .cfa: $rsp 56 +
STACK CFI 1123e .cfa: $rsp 96 +
STACK CFI 11283 .cfa: $rsp 56 +
STACK CFI 11286 .cfa: $rsp 48 +
STACK CFI 11287 .cfa: $rsp 40 +
STACK CFI 11289 .cfa: $rsp 32 +
STACK CFI 1128b .cfa: $rsp 24 +
STACK CFI 1128d .cfa: $rsp 16 +
STACK CFI 1128f .cfa: $rsp 8 +
STACK CFI 11290 .cfa: $rsp 96 +
STACK CFI 113ce .cfa: $rsp 56 +
STACK CFI 113cf .cfa: $rsp 48 +
STACK CFI 113d0 .cfa: $rsp 40 +
STACK CFI 113d2 .cfa: $rsp 32 +
STACK CFI 113d4 .cfa: $rsp 24 +
STACK CFI 113d6 .cfa: $rsp 16 +
STACK CFI 113d8 .cfa: $rsp 8 +
STACK CFI 113e0 .cfa: $rsp 96 +
STACK CFI INIT 11990 250 .cfa: $rsp 8 + .ra: .cfa -8 + ^
STACK CFI 11992 $r15: .cfa -16 + ^ .cfa: $rsp 16 +
STACK CFI 11994 $r14: .cfa -24 + ^ .cfa: $rsp 24 +
STACK CFI 11996 $r13: .cfa -32 + ^ .cfa: $rsp 32 +
STACK CFI 11998 $r12: .cfa -40 + ^ .cfa: $rsp 40 +
STACK CFI 1199c $rbp: .cfa -48 + ^ .cfa: $rsp 48 +
STACK CFI 1199d $rbx: .cfa -56 + ^ .cfa: $rsp 56 +
STACK CFI 119a4 .cfa: $rsp 80 +
STACK CFI 11a50 .cfa: $rsp 56 +
STACK CFI 11a51 .cfa: $rsp 48 +
STACK CFI 11a52 .cfa: $rsp 40 +
STACK CFI 11a54 .cfa: $rsp 32 +
STACK CFI 11a56 .cfa: $rsp 24 +
STACK CFI 11a58 .cfa: $rsp 16 +
STACK CFI 11a5a .cfa: $rsp 8 +
STACK CFI 11a60 .cfa: $rsp 80 +
STACK CFI INIT 116a0 2e6 .cfa: $rsp 8 + .ra: .cfa -8 + ^
STACK CFI 116a2 $r15: .cfa -16 + ^ .cfa: $rsp 16 +
STACK CFI 116a4 $r14: .cfa -24 + ^ .cfa: $rsp 24 +
STACK CFI 116a6 $r13: .cfa -32 + ^ .cfa: $rsp 32 +
STACK CFI 116a8 $r12: .cfa -40 + ^ .cfa: $rsp 40 +
STACK CFI 116a9 $rbp: .cfa -48 + ^ .cfa: $rsp 48 +
STACK CFI 116aa $rbx: .cfa -56 + ^ .cfa: $rsp 56 +
STACK CFI 116ae .cfa: $rsp 112 +
STACK CFI 11700 .cfa: $rsp 56 +
STACK CFI 11701 .cfa: $rsp 48 +
STACK CFI 11702 .cfa: $rsp 40 +
STACK CFI 11704 .cfa: $rsp 32 +
STACK CFI 11706 .cfa: $rsp 24 +
STACK CFI 11708 .cfa: $rsp 16 +
STACK CFI 1170a .cfa: $rsp 8 +
STACK CFI 11710 .cfa: $rsp 112 +
STACK CFI INIT 11be0 da .cfa: $rsp 8 + .ra: .cfa -8 + ^
STACK CFI 11be2 $r13: .cfa -16 + ^ .cfa: $rsp 16 +
STACK CFI 11be4 $r12: .cfa -24 + ^ .cfa: $rsp 24 +
STACK CFI 11be9 $rbp: .cfa -32 + ^ .cfa: $rsp 32 +
STACK CFI 11bea $rbx: .cfa -40 + ^ .cfa: $rsp 40 +
STACK CFI 11bee .cfa: $rsp 64 +
STACK CFI 11c52 .cfa: $rsp 40 +
STACK CFI 11c53 .cfa: $rsp 32 +
STACK CFI 11c54 .cfa: $rsp 24 +
STACK CFI 11c56 .cfa: $rsp 16 +
STACK CFI 11c58 .cfa: $rsp 8 +
STACK CFI 11c60 .cfa: $rsp 64 +
STACK CFI INIT 11cc0 1ab .cfa: $rsp 8 + .ra: .cfa -8 + ^
STACK CFI 11cc2 $r15: .cfa -16 + ^ .cfa: $rsp 16 +
STACK CFI 11cc4 $r14: .cfa -24 + ^ .cfa: $rsp 24 +
STACK CFI 11cc6 $r13: .cfa -32 + ^ .cfa: $rsp 32 +
STACK CFI 11cc8 $r12: .cfa -40 + ^ .cfa: $rsp 40 +
STACK CFI 11ccc $rbp: .cfa -48 + ^ .cfa: $rsp 48 +
STACK CFI 11ccd $rbx: .cfa -56 + ^ .cfa: $rsp 56 +
STACK CFI 11cd1 .cfa: $rsp 112 +
STACK CFI 11e07 .cfa: $rsp 56 +
STACK CFI 11e08 .cfa: $rsp 48 +
STACK CFI 11e09 .cfa: $rsp 40 +
STACK CFI 11e0b .cfa: $rsp 32 +
STACK CFI 11e0d .cfa: $rsp 24 +
STACK CFI 11e0f .cfa: $rsp 16 +
STACK CFI 11e11 .cfa: $rsp 8 +
STACK CFI 11e18 .cfa: $rsp 112 +
STACK CFI INIT 11e70 135 .cfa: $rsp 8 + .ra: .cfa -8 + ^
STACK CFI 11e72 $r15: .cfa -16 + ^ .cfa: $rsp 16 +
STACK CFI 11e74 $r14: .cfa -24 + ^ .cfa: $rsp 24 +
STACK CFI 11e76 $r13: .cfa -32 + ^ .cfa: $rsp 32 +
STACK CFI 11e78 $r12: .cfa -40 + ^ .cfa: $rsp 40 +
STACK CFI 11e7c $rbp: .cfa -48 + ^ .cfa: $rsp 48 +
STACK CFI 11e7d $rbx: .cfa -56 + ^ .cfa: $rsp 56 +
STACK CFI 11e81 .cfa: $rsp 96 +
STACK CFI 11f6e .cfa: $rsp 56 +
STACK CFI 11f6f .cfa: $rsp 48 +
STACK CFI 11f70 .cfa: $rsp 40 +
STACK CFI 11f72 .cfa: $rsp 32 +
STACK CFI 11f74 .cfa: $rsp 24 +
STACK CFI 11f76 .cfa: $rsp 16 +
STACK CFI 11f78 .cfa: $rsp 8 +
STACK CFI 11f79 .cfa: $rsp 96 +
STACK CFI INIT 11fb0 c01 .cfa: $rsp 8 + .ra: .cfa -8 + ^
STACK CFI 11fb1 $rbp: .cfa -16 + ^ .cfa: $rsp 16 +
STACK CFI 11fb4 .cfa: $rbp 16 +
STACK CFI 11fbc $r12: .cfa -48 + ^ $r13: .cfa -40 + ^ $r14: .cfa -32 + ^ $r15: .cfa -24 + ^
STACK CFI 11fc0 $rbx: .cfa -56 + ^
STACK CFI 121ce .cfa: $rsp 8 +
STACK CFI 121cf .cfa: $rbp 16 +
STACK CFI INIT 12bc0 7c .cfa: $rsp 8 + .ra: .cfa -8 + ^
STACK CFI 12bc1 $rbp: .cfa -16 + ^ .cfa: $rsp 16 +
STACK CFI 12bc2 $rbx: .cfa -24 + ^ .cfa: $rsp 24 +
STACK CFI 12bcb .cfa: $rsp 64 +
STACK CFI 12c1a .cfa: $rsp 24 +
STACK CFI 12c1b .cfa: $rsp 16 +
STACK CFI 12c1c .cfa: $rsp 8 +
STACK CFI 12c20 .cfa: $rsp 64 +
STACK CFI INIT 12d80 21 .cfa: $rsp 8 + .ra: .cfa -8 + ^
STACK CFI 12d84 .cfa: $rsp 16 +
STACK CFI 12d96 .cfa: $rsp 8 +
STACK CFI INIT 12c40 bb .cfa: $rsp 8 + .ra: .cfa -8 + ^
STACK CFI 12c42 $r12: .cfa -16 + ^ .cfa: $rsp 16 +
STACK CFI 12c43 $rbp: .cfa -24 + ^ .cfa: $rsp 24 +
STACK CFI 12c47 $rbx: .cfa -32 + ^ .cfa: $rsp 32 +
STACK CFI 12cbb .cfa: $rsp 24 +
STACK CFI 12cbc .cfa: $rsp 16 +
STACK CFI 12cbe .cfa: $rsp 8 +
STACK CFI 12cc0 .cfa: $rsp 32 +
STACK CFI INIT 12d00 75 .cfa: $rsp 8 + .ra: .cfa -8 + ^
STACK CFI 12d04 $rbx: .cfa -16 + ^ .cfa: $rsp 16 +
STACK CFI 12d23 .cfa: $rsp 24 +
STACK CFI 12d27 .cfa: $rsp 32 +
STACK CFI 12d2c .cfa: $rsp 40 +
STACK CFI 12d31 .cfa: $rsp 48 +
STACK CFI 12d42 .cfa: $rsp 16 +
STACK CFI 12d55 .cfa: $rsp 8 +
STACK CFI 12d56 .cfa: $rsp 16 +
STACK CFI INIT 12db0 1e .cfa: $rsp 8 + .ra: .cfa -8 + ^
STACK CFI INIT 12dd0 46 .cfa: $rsp 8 + .ra: .cfa -8 + ^
STACK CFI INIT 12e20 56 .cfa: $rsp 8 + .ra: .cfa -8 + ^
STACK CFI INIT 12e80 4c .cfa: $rsp 8 + .ra: .cfa -8 + ^
STACK CFI INIT 12ed0 39 .cfa: $rsp 8 + .ra: .cfa -8 + ^
STACK CFI INIT 12f10 3c .cfa: $rsp 8 + .ra: .cfa -8 + ^
STACK CFI INIT 12f50 34 .cfa: $rsp 8 + .ra: .cfa -8 + ^
STACK CFI INIT 12f90 26 .cfa: $rsp 8 + .ra: .cfa -8 + ^
STACK CFI INIT 12fc0 34 .cfa: $rsp 8 + .ra: .cfa -8 + ^
STACK CFI INIT 13000 7c .cfa: $rsp 8 + .ra: .cfa -8 + ^
STACK CFI INIT 13080 3a .cfa: $rsp 8 + .ra: .cfa -8 + ^
STACK CFI INIT 130c0 12 .cfa: $rsp 8 + .ra: .cfa -8 + ^
STACK CFI INIT 130e0 38 .cfa: $rsp 8 + .ra: .cfa -8 + ^
STACK CFI INIT 13120 3b .cfa: $rsp 8 + .ra: .cfa -8 + ^
STACK CFI 13126 $rbx: .cfa -16 + ^ .cfa: $rsp 16 +
STACK CFI 13143 $rbx: $rbx .cfa: $rsp 8 +
STACK CFI 13148 $rbx: .cfa -16 + ^ .cfa: $rsp 16 +
STACK CFI 13157 $rbx: $rbx .cfa: $rsp 8 +
STACK CFI INIT 13160 a4 .cfa: $rsp 8 + .ra: .cfa -8 + ^
STACK CFI 13164 .cfa: $rsp 32 +
STACK CFI 131f1 .cfa: $rsp 8 +
STACK CFI 131f8 .cfa: $rsp 32 +
STACK CFI INIT 13210 10 .cfa: $rsp 8 + .ra: .cfa -8 + ^
STACK CFI INIT 13220 4b .cfa: $rsp 8 + .ra: .cfa -8 + ^
STACK CFI 13221 $rbp: .cfa -16 + ^ .cfa: $rsp 16 +
STACK CFI 13222 $rbx: .cfa -24 + ^ .cfa: $rsp 24 +
STACK CFI 13229 .cfa: $rsp 32 +
STACK CFI 1325c .cfa: $rsp 24 +
STACK CFI 1325d .cfa: $rsp 16 +
STACK CFI 1325e .cfa: $rsp 8 +
STACK CFI 13260 .cfa: $rsp 32 +
STACK CFI INIT 13270 5 .cfa: $rsp 8 + .ra: .cfa -8 + ^
STACK CFI INIT 13280 1af .cfa: $rsp 8 + .ra: .cfa -8 + ^
STACK CFI 13282 $r15: .cfa -16 + ^ .cfa: $rsp 16 +
STACK CFI 13284 $r14: .cfa -24 + ^ .cfa: $rsp 24 +
STACK CFI 13286 $r13: .cfa -32 + ^ .cfa: $rsp 32 +
STACK CFI 13288 $r12: .cfa -40 + ^ .cfa: $rsp 40 +
STACK CFI 1328c $rbp: .cfa -48 + ^ .cfa: $rsp 48 +
STACK CFI 1328d $rbx: .cfa -56 + ^ .cfa: $rsp 56 +
STACK CFI 1329c .cfa: $rsp 224 +
STACK CFI 1338d .cfa: $rsp 56 +
STACK CFI 1338e .cfa: $rsp 48 +
STACK CFI 1338f .cfa: $rsp 40 +
STACK CFI 13391 .cfa: $rsp 32 +
STACK CFI 13393 .cfa: $rsp 24 +
STACK CFI 13395 .cfa: $rsp 16 +
STACK CFI 13397 .cfa: $rsp 8 +
STACK CFI 133a0 .cfa: $rsp 224 +
STACK CFI INIT 13430 14 .cfa: $rsp 8 + .ra: .cfa -8 + ^
STACK CFI INIT 13450 40 .cfa: $rsp 8 + .ra: .cfa -8 + ^
STACK CFI 13456 $rbx: .cfa -16 + ^ .cfa: $rsp 16 +
STACK CFI 13471 .cfa: $rsp 8 +
STACK CFI 13478 .cfa: $rsp 16 +
STACK CFI 1348f .cfa: $rsp 8 +
STACK CFI INIT 13490 2 .cfa: $rsp 8 + .ra: .cfa -8 + ^
STACK CFI INIT 134a0 213 .cfa: $rsp 8 + .ra: .cfa -8 + ^
STACK CFI 134a2 $r15: .cfa -16 + ^ .cfa: $rsp 16 +
STACK CFI 134a4 $r14: .cfa -24 + ^ .cfa: $rsp 24 +
STACK CFI 134ab $r13: .cfa -32 + ^ .cfa: $rsp 32 +
STACK CFI 134ad $r12: .cfa -40 + ^ .cfa: $rsp 40 +
STACK CFI 134ae $rbp: .cfa -48 + ^ .cfa: $rsp 48 +
STACK CFI 134af $rbx: .cfa -56 + ^ .cfa: $rsp 56 +
STACK CFI 134b9 .cfa: $rsp 208 +
STACK CFI 13647 .cfa: $rsp 56 +
STACK CFI 13648 .cfa: $rsp 48 +
STACK CFI 13649 .cfa: $rsp 40 +
STACK CFI 1364b .cfa: $rsp 32 +
STACK CFI 1364d .cfa: $rsp 24 +
STACK CFI 1364f .cfa: $rsp 16 +
STACK CFI 13651 .cfa: $rsp 8 +
STACK CFI 13658 .cfa: $rsp 208 +
STACK CFI INIT 136c0 5 .cfa: $rsp 8 + .ra: .cfa -8 + ^
STACK CFI INIT 136d0 23 .cfa: $rsp 8 + .ra: .cfa -8 + ^
STACK CFI 136d5 $rbx: .cfa -16 + ^ .cfa: $rsp 16 +
STACK CFI 136ef $rbx: $rbx .cfa: $rsp 8 +
STACK CFI INIT 13700 8 .cfa: $rsp 8 + .ra: .cfa -8 + ^
STACK CFI INIT 13710 2fc .cfa: $rsp 8 + .ra: .cfa -8 + ^
STACK CFI INIT 13a10 44 .cfa: $rsp 8 + .ra: .cfa -8 + ^
STACK CFI 13a3c .cfa: $rsp 16 +
STACK CFI INIT 13a60 47 .cfa: $rsp 8 + .ra: .cfa -8 + ^
STACK CFI 13a8f .cfa: $rsp 16 +
STACK CFI INIT 13ab0 8 .cfa: $rsp 8 + .ra: .cfa -8 + ^
STACK CFI INIT 13ac0 8 .cfa: $rsp 8 + .ra: .cfa -8 + ^
STACK CFI INIT 13ad0 25c .cfa: $rsp 8 + .ra: .cfa -8 + ^
STACK CFI INIT 13d30 17d .cfa: $rsp 8 + .ra: .cfa -8 + ^
STACK CFI 13dff $rbx: .cfa -16 + ^ .cfa: $rsp 16 +
STACK CFI 13e95 $rbx: $rbx .cfa: $rsp 8 +
STACK CFI 13e96 $rbx: .cfa -16 + ^ .cfa: $rsp 16 +
STACK CFI 13ea2 $rbx: $rbx .cfa: $rsp 8 +
STACK CFI 13ea3 $rbx: .cfa -16 + ^ .cfa: $rsp 16 +
STACK CFI INIT 13eb0 19c .cfa: $rsp 8 + .ra: .cfa -8 + ^
STACK CFI 13ece $r13: .cfa -16 + ^ .cfa: $rsp 16 +
STACK CFI 13ed3 $r12: .cfa -24 + ^ .cfa: $rsp 24 +
STACK CFI 13ed8 $rbp: .cfa -32 + ^ .cfa: $rsp 32 +
STACK CFI 13ed9 $rbx: .cfa -40 + ^ .cfa: $rsp 40 +
STACK CFI 13f58 $r12: $r12 $r13: $r13 $rbp: $rbp $rbx: $rbx .cfa: $rsp 8 +
STACK CFI 13ff0 $r12: .cfa -24 + ^ $r13: .cfa -16 + ^ $rbp: .cfa -32 + ^ $rbx: .cfa -40 + ^ .cfa: $rsp 40 +
STACK CFI 1400f $rbx: $rbx .cfa: $rsp 32 +
STACK CFI 14010 $rbp: $rbp .cfa: $rsp 24 +
STACK CFI 14018 $r12: $r12 .cfa: $rsp 16 +
STACK CFI 1401a $r13: $r13 .cfa: $rsp 8 +
STACK CFI 14030 $r12: .cfa -24 + ^ $r13: .cfa -16 + ^ $rbp: .cfa -32 + ^ $rbx: .cfa -40 + ^ .cfa: $rsp 40 +
STACK CFI 1403b $r12: $r12 $r13: $r13 $rbp: $rbp $rbx: $rbx .cfa: $rsp 8 +
STACK CFI 14047 $r12: .cfa -24 + ^ $r13: .cfa -16 + ^ $rbp: .cfa -32 + ^ $rbx: .cfa -40 + ^ .cfa: $rsp 40 +
STACK CFI INIT 14050 1ff .cfa: $rsp 8 + .ra: .cfa -8 + ^
STACK CFI 14052 $r13: .cfa -16 + ^ .cfa: $rsp 16 +
STACK CFI 14054 $r12: .cfa -24 + ^ .cfa: $rsp 24 +
STACK CFI 14055 $rbp: .cfa -32 + ^ .cfa: $rsp 32 +
STACK CFI 14056 $rbx: .cfa -40 + ^ .cfa: $rsp 40 +
STACK CFI 14172 .cfa: $rsp 32 +
STACK CFI 14173 .cfa: $rsp 24 +
STACK CFI 14178 .cfa: $rsp 16 +
STACK CFI 1417a .cfa: $rsp 8 +
STACK CFI 14180 .cfa: $rsp 40 +
STACK CFI 14195 .cfa: $rsp 32 +
STACK CFI 14196 .cfa: $rsp 24 +
STACK CFI 14198 .cfa: $rsp 16 +
STACK CFI 1419a .cfa: $rsp 8 +
STACK CFI 141a0 .cfa: $rsp 40 +
STACK CFI 141c5 .cfa: $rsp 32 +
STACK CFI 141c6 .cfa: $rsp 24 +
STACK CFI 141c8 .cfa: $rsp 16 +
STACK CFI 141ca .cfa: $rsp 8 +
STACK CFI 141d0 .cfa: $rsp 40 +
STACK CFI 141f9 .cfa: $rsp 32 +
STACK CFI 141fa .cfa: $rsp 24 +
STACK CFI 141fc .cfa: $rsp 16 +
STACK CFI 141fe .cfa: $rsp 8 +
STACK CFI 141ff .cfa: $rsp 40 +
STACK CFI INIT 14250 d7 .cfa: $rsp 8 + .ra: .cfa -8 + ^
STACK CFI INIT 14330 330 .cfa: $rsp 8 + .ra: .cfa -8 + ^
STACK CFI 14335 $r15: .cfa -16 + ^ .cfa: $rsp 16 +
STACK CFI 14337 $r14: .cfa -24 + ^ .cfa: $rsp 24 +
STACK CFI 14339 $r13: .cfa -32 + ^ .cfa: $rsp 32 +
STACK CFI 1433b $r12: .cfa -40 + ^ .cfa: $rsp 40 +
STACK CFI 1433c $rbp: .cfa -48 + ^ .cfa: $rsp 48 +
STACK CFI 14340 $rbx: .cfa -56 + ^ .cfa: $rsp 56 +
STACK CFI 1440c .cfa: $rsp 48 +
STACK CFI 1440d .cfa: $rsp 40 +
STACK CFI 1440f .cfa: $rsp 32 +
STACK CFI 14411 .cfa: $rsp 24 +
STACK CFI 14413 .cfa: $rsp 16 +
STACK CFI 14415 .cfa: $rsp 8 +
STACK CFI 14420 .cfa: $rsp 56 +
STACK CFI INIT 14660 2b8 .cfa: $rsp 8 + .ra: .cfa -8 + ^
STACK CFI 14662 $r12: .cfa -16 + ^ .cfa: $rsp 16 +
STACK CFI 14663 $rbp: .cfa -24 + ^ .cfa: $rsp 24 +
STACK CFI 14666 $rbx: .cfa -32 + ^ .cfa: $rsp 32 +
STACK CFI 1477d .cfa: $rsp 24 +
STACK CFI 1477e .cfa: $rsp 16 +
STACK CFI 14780 .cfa: $rsp 8 +
STACK CFI 14788 .cfa: $rsp 32 +
STACK CFI 147b6 .cfa: $rsp 24 +
STACK CFI 147b7 .cfa: $rsp 16 +
STACK CFI 147b9 .cfa: $rsp 8 +
STACK CFI 147c0 .cfa: $rsp 32 +
STACK CFI 148fc .cfa: $rsp 24 +
STACK CFI 148fd .cfa: $rsp 16 +
STACK CFI 148ff .cfa: $rsp 8 +
STACK CFI 14900 .cfa: $rsp 32 +
STACK CFI INIT 14920 307 .cfa: $rsp 8 + .ra: .cfa -8 + ^
STACK CFI 14922 $r15: .cfa -16 + ^ .cfa: $rsp 16 +
STACK CFI 14924 $r14: .cfa -24 + ^ .cfa: $rsp 24 +
STACK CFI 14926 $r13: .cfa -32 + ^ .cfa: $rsp 32 +
STACK CFI 14928 $r12: .cfa -40 + ^ .cfa: $rsp 40 +
STACK CFI 14929 $rbp: .cfa -48 + ^ .cfa: $rsp 48 +
STACK CFI 1492a $rbx: .cfa -56 + ^ .cfa: $rsp 56 +
STACK CFI 14a16 .cfa: $rsp 48 +
STACK CFI 14a17 .cfa: $rsp 40 +
STACK CFI 14a19 .cfa: $rsp 32 +
STACK CFI 14a1b .cfa: $rsp 24 +
STACK CFI 14a1d .cfa: $rsp 16 +
STACK CFI 14a1f .cfa: $rsp 8 +
STACK CFI 14a20 .cfa: $rsp 56 +
STACK CFI INIT 14c30 65 .cfa: $rsp 8 + .ra: .cfa -8 + ^
STACK CFI 14c32 $r15: .cfa -16 + ^ .cfa: $rsp 16 +
STACK CFI 14c34 $r14: .cfa -24 + ^ .cfa: $rsp 24 +
STACK CFI 14c39 $r13: .cfa -32 + ^ .cfa: $rsp 32 +
STACK CFI 14c3b $r12: .cfa -40 + ^ .cfa: $rsp 40 +
STACK CFI 14c43 $rbp: .cfa -48 + ^ .cfa: $rsp 48 +
STACK CFI 14c4b $rbx: .cfa -56 + ^ .cfa: $rsp 56 +
STACK CFI 14c58 .cfa: $rsp 64 +
STACK CFI 14c8a .cfa: $rsp 56 +
STACK CFI 14c8b .cfa: $rsp 48 +
STACK CFI 14c8c .cfa: $rsp 40 +
STACK CFI 14c8e .cfa: $rsp 32 +
STACK CFI 14c90 .cfa: $rsp 24 +
STACK CFI 14c92 .cfa: $rsp 16 +
STACK CFI 14c94 .cfa: $rsp 8 +
STACK CFI INIT 14ca0 2 .cfa: $rsp 8 + .ra: .cfa -8 + ^
