MODULE mac x86_64 67E9247C814E392BA027DBDE6748FCBF0 crash
FUNC d20 1a 0 <name omitted>
FUNC d40 1a 0 google_breakpad::MinidumpFileWriter::MinidumpFileWriter()
FUNC d60 34 0 <name omitted>
FUNC da0 31 0 google_breakpad::MinidumpFileWriter::Close()
FUNC de0 34 0 google_breakpad::MinidumpFileWriter::~MinidumpFileWriter()
FUNC e20 49 0 google_breakpad::MinidumpFileWriter::Open(char const*)
FUNC e70 2d 0 google_breakpad::MinidumpFileWriter::SetFile(int)
FUNC ea0 147 0 google_breakpad::MinidumpFileWriter::CopyStringToMDString(wchar_t const*, unsigned int, google_breakpad::TypedMDRVA<MDString>*)
FUNC ff0 147 0 google_breakpad::MinidumpFileWriter::CopyStringToMDString(char const*, unsigned int, google_breakpad::TypedMDRVA<MDString>*)
FUNC 1140 5 0 google_breakpad::MinidumpFileWriter::WriteString(wchar_t const*, unsigned int, MDLocationDescriptor*)
FUNC 1150 2cc 0 bool google_breakpad::MinidumpFileWriter::WriteStringCore<wchar_t>(wchar_t const*, unsigned int, MDLocationDescriptor*)
FUNC 1420 5 0 google_breakpad::MinidumpFileWriter::WriteString(char const*, unsigned int, MDLocationDescriptor*)
FUNC 1430 2cc 0 bool google_breakpad::MinidumpFileWriter::WriteStringCore<char>(char const*, unsigned int, MDLocationDescriptor*)
FUNC 1700 c4 0 google_breakpad::MinidumpFileWriter::WriteMemory(void const*, unsigned long, MDMemoryDescriptor*)
FUNC 17d0 104 0 google_breakpad::UntypedMDRVA::Allocate(unsigned long)
FUNC 18e0 b4 0 google_breakpad::MinidumpFileWriter::Allocate(unsigned long)
FUNC 19a0 c8 0 google_breakpad::MinidumpFileWriter::Copy(unsigned int, void const*, long)
FUNC 1a70 f3 0 google_breakpad::UntypedMDRVA::Copy(unsigned int, void const*, unsigned long)
FUNC 1b70 1b3 0 google_breakpad::CrashGenerationClient::RequestDumpForException(int, int, int, unsigned int)
FUNC 1d30 bb 0 google_breakpad::ReadTaskMemory(unsigned int, unsigned long long, unsigned long, std::__1::vector<unsigned char, std::__1::allocator<unsigned char> >&)
FUNC 1df0 1ba 0 google_breakpad::DynamicImage::CalculateMemoryAndVersionInfo()
FUNC 1fb0 7 0 <name omitted>
FUNC 1fc0 b8 0 google_breakpad::DynamicImages::DynamicImages(unsigned int)
FUNC 2080 d6 0 google_breakpad::DynamicImages::DetermineTaskCPUType(unsigned int)
FUNC 2160 52 0 google_breakpad::DynamicImages::ReadImageInfoForTask()
FUNC 21c0 5 0 google_breakpad::DynamicImages::DynamicImages(unsigned int)
FUNC 21d0 34 0 google_breakpad::DynamicImages::GetDyldAllImageInfosPointer()
FUNC 2210 5d0 0 void google_breakpad::ReadImageInfo<google_breakpad::MachO64>(google_breakpad::DynamicImages&, unsigned long long)
FUNC 27e0 5d0 0 void google_breakpad::ReadImageInfo<google_breakpad::MachO32>(google_breakpad::DynamicImages&, unsigned long long)
FUNC 2db0 4a 0 google_breakpad::DynamicImages::GetExecutableImage()
FUNC 2e00 3a 0 google_breakpad::DynamicImages::GetExecutableImageIndex()
FUNC 2e40 1c3 0 std::__1::vector<unsigned char, std::__1::allocator<unsigned char> >::__append(unsigned long)
FUNC 3010 1bb 0 google_breakpad::ReadTaskString(unsigned int, unsigned long long)
FUNC 31d0 116 0 google_breakpad::DynamicImage::DynamicImage(unsigned char*, unsigned long, unsigned long long, std::__1::basic_string<char, std::__1::char_traits<char>, std::__1::allocator<char> >, unsigned long, unsigned int, int)
FUNC 32f0 185 0 void std::__1::vector<google_breakpad::DynamicImageRef, std::__1::allocator<google_breakpad::DynamicImageRef> >::__push_back_slow_path<google_breakpad::DynamicImageRef>(google_breakpad::DynamicImageRef&&)
FUNC 3480 5f9 0 void std::__1::__sort<std::__1::__less<google_breakpad::DynamicImageRef, google_breakpad::DynamicImageRef>&, google_breakpad::DynamicImageRef*>(google_breakpad::DynamicImageRef*, google_breakpad::DynamicImageRef*, std::__1::__less<google_breakpad::DynamicImageRef, google_breakpad::DynamicImageRef>&)
FUNC 3aa0 142 0 unsigned int std::__1::__sort5<std::__1::__less<google_breakpad::DynamicImageRef, google_breakpad::DynamicImageRef>&, google_breakpad::DynamicImageRef*>(google_breakpad::DynamicImageRef*, google_breakpad::DynamicImageRef*, google_breakpad::DynamicImageRef*, google_breakpad::DynamicImageRef*, google_breakpad::DynamicImageRef*, std::__1::__less<google_breakpad::DynamicImageRef, google_breakpad::DynamicImageRef>&)
FUNC 3bf0 2b3 0 bool std::__1::__insertion_sort_incomplete<std::__1::__less<google_breakpad::DynamicImageRef, google_breakpad::DynamicImageRef>&, google_breakpad::DynamicImageRef*>(google_breakpad::DynamicImageRef*, google_breakpad::DynamicImageRef*, std::__1::__less<google_breakpad::DynamicImageRef, google_breakpad::DynamicImageRef>&)
FUNC 3ec0 5 0 <name omitted>
FUNC 3ed0 20 0 google_breakpad::catch_exception_raise
FUNC 3ef0 fc 0 google_breakpad::ForwardException(unsigned int, unsigned int, int, int*, unsigned int)
FUNC 3ff0 18d 0 google_breakpad::ExceptionHandler::ExceptionHandler(std::__1::basic_string<char, std::__1::char_traits<char>, std::__1::allocator<char> > const&, bool (*)(void*), bool (*)(char const*, char const*, void*, bool), void*, bool, char const*)
FUNC 4180 111 0 google_breakpad::ExceptionHandler::Setup(bool)
FUNC 42a0 e 0 google_breakpad::scoped_ptr<google_breakpad::CrashGenerationClient>::~scoped_ptr()
FUNC 42b0 e 0 google_breakpad::scoped_ptr<sigaction>::~scoped_ptr()
FUNC 42c0 9 0 <name omitted>
FUNC 42d0 124 0 google_breakpad::ExceptionHandler::ExceptionHandler(bool (*)(void*, int, int, int, unsigned int), void*, bool)
FUNC 4400 8 0 google_breakpad::ExceptionHandler::ExceptionHandler(bool (*)(void*, int, int, int, unsigned int), void*, bool)
FUNC 4410 163 0 google_breakpad::ExceptionHandler::~ExceptionHandler()
FUNC 4580 f8 0 google_breakpad::ExceptionHandler::Teardown()
FUNC 4690 5 0 <name omitted>
FUNC 46a0 112 0 google_breakpad::ExceptionHandler::WriteMinidump(bool)
FUNC 47c0 b1 0 google_breakpad::ExceptionHandler::SendMessageToHandlerThread(google_breakpad::HandlerThreadMessage)
FUNC 4880 b4 0 google_breakpad::ExceptionHandler::UpdateNextID()
FUNC 4940 96 0 google_breakpad::ExceptionHandler::WriteMinidump(std::__1::basic_string<char, std::__1::char_traits<char>, std::__1::allocator<char> > const&, bool, bool (*)(char const*, char const*, void*, bool), void*)
FUNC 49e0 139 0 google_breakpad::ExceptionHandler::WriteMinidumpForChild(unsigned int, unsigned int, std::__1::basic_string<char, std::__1::char_traits<char>, std::__1::allocator<char> > const&, bool (*)(char const*, char const*, void*, bool), void*)
FUNC 4b20 252 0 google_breakpad::ExceptionHandler::WriteMinidumpWithException(int, int, int, __darwin_ucontext*, unsigned int, bool, bool)
FUNC 4d80 2d2 0 google_breakpad::ExceptionHandler::WaitForMessage(void*)
FUNC 5060 70 0 google_breakpad::ExceptionHandler::SuspendThreads()
FUNC 50d0 70 0 google_breakpad::ExceptionHandler::ResumeThreads()
FUNC 5140 e6 0 google_breakpad::ExceptionHandler::UninstallHandler(bool)
FUNC 5230 47 0 google_breakpad::ExceptionHandler::SignalHandler(int, __siginfo*, void*)
FUNC 5280 161 0 google_breakpad::ExceptionHandler::InstallHandler()
FUNC 53f0 316 0 google_breakpad::MinidumpGenerator::MinidumpGenerator()
FUNC 5710 259 0 google_breakpad::MinidumpGenerator::GatherSystemInformation()
FUNC 5970 5 0 google_breakpad::MinidumpGenerator::MinidumpGenerator()
FUNC 5980 343 0 google_breakpad::MinidumpGenerator::MinidumpGenerator(unsigned int, unsigned int)
FUNC 5cd0 5 0 google_breakpad::MinidumpGenerator::MinidumpGenerator(unsigned int, unsigned int)
FUNC 5ce0 94 0 google_breakpad::MinidumpGenerator::~MinidumpGenerator()
FUNC 5d80 5 0 <name omitted>
FUNC 5d90 12 0 google_breakpad::MinidumpGenerator::~MinidumpGenerator()
FUNC 5db0 5 0 google_breakpad::MinidumpGenerator::SetTaskContext(__darwin_ucontext*)
FUNC 5dc0 114 0 google_breakpad::MinidumpGenerator::UniqueNameInDirectory(std::__1::basic_string<char, std::__1::char_traits<char>, std::__1::allocator<char> > const&, std::__1::basic_string<char, std::__1::char_traits<char>, std::__1::allocator<char> >*)
FUNC 5ee0 2b3 0 google_breakpad::MinidumpGenerator::Write(char const*)
FUNC 61a0 246 0 google_breakpad::MinidumpGenerator::WriteThreadListStream(MDRawDirectory*)
FUNC 63f0 51f 0 google_breakpad::MinidumpGenerator::WriteMemoryListStream(MDRawDirectory*)
FUNC 6910 25d 0 google_breakpad::MinidumpGenerator::WriteSystemInfoStream(MDRawDirectory*)
FUNC 6b70 28d 0 google_breakpad::MinidumpGenerator::WriteModuleListStream(MDRawDirectory*)
FUNC 6e00 259 0 google_breakpad::MinidumpGenerator::WriteMiscInfoStream(MDRawDirectory*)
FUNC 7060 10b 0 google_breakpad::MinidumpGenerator::WriteBreakpadInfoStream(MDRawDirectory*)
FUNC 7170 113 0 google_breakpad::MinidumpGenerator::CalculateStackSize(unsigned long long)
FUNC 7290 176 0 google_breakpad::MinidumpGenerator::WriteStackFromStartAddress(unsigned long long, MDMemoryDescriptor*)
FUNC 7410 24 0 <name omitted>
FUNC 7440 8 0 google_breakpad::MinidumpGenerator::WriteStackX86(unsigned int*, MDMemoryDescriptor*)
FUNC 7450 9 0 google_breakpad::MinidumpGenerator::WriteStackX86_64(unsigned int*, MDMemoryDescriptor*)
FUNC 7460 22 0 <name omitted>
FUNC 7490 1a7 0 google_breakpad::MinidumpGenerator::WriteContextX86(unsigned int*, MDLocationDescriptor*)
FUNC 7640 1c1 0 google_breakpad::MinidumpGenerator::WriteContextX86_64(unsigned int*, MDLocationDescriptor*)
FUNC 7810 3d 0 google_breakpad::MinidumpGenerator::CurrentPCForStack(unsigned int*)
FUNC 7850 4 0 google_breakpad::MinidumpGenerator::CurrentPCForStackX86(unsigned int*)
FUNC 7860 8 0 google_breakpad::MinidumpGenerator::CurrentPCForStackX86_64(unsigned int*)
FUNC 7870 b5 0 google_breakpad::MinidumpGenerator::GetThreadState(unsigned int, unsigned int*, unsigned int*)
FUNC 7930 1a6 0 google_breakpad::MinidumpGenerator::WriteThreadStream(unsigned int, MDRawThread*)
FUNC 7ae0 272 0 google_breakpad::MinidumpGenerator::WriteExceptionStream(MDRawDirectory*)
FUNC 7d60 399 0 google_breakpad::MinidumpGenerator::WriteModuleStream(unsigned int, MDRawModule*)
FUNC 8100 4e 0 google_breakpad::MinidumpGenerator::FindExecutableModule()
FUNC 8150 3a2 0 google_breakpad::MinidumpGenerator::WriteCVRecord(MDRawModule*, int, char const*, bool)
FUNC 8500 ad 0 google_breakpad::DynamicImages::~DynamicImages()
FUNC 85b0 158 0 std::__1::__split_buffer<MDMemoryDescriptor, google_breakpad::PageStdAllocator<MDMemoryDescriptor>&>::__split_buffer(unsigned long, unsigned long, google_breakpad::PageStdAllocator<MDMemoryDescriptor>&)
FUNC 8710 272 0 void std::__1::vector<MDMemoryDescriptor, google_breakpad::PageStdAllocator<MDMemoryDescriptor> >::__push_back_slow_path<MDMemoryDescriptor const&>(MDMemoryDescriptor const&&&)
FUNC 8990 1a3 0 ConvertUTF32toUTF16
FUNC 8b40 11f 0 ConvertUTF16toUTF32
FUNC 8c60 2e7 0 ConvertUTF16toUTF8
FUNC 8f70 fa 0 isLegalUTF8Sequence
FUNC 90d0 26d 0 ConvertUTF8toUTF16
FUNC 93c0 24b 0 ConvertUTF32toUTF8
FUNC 9630 3f9 0 ConvertUTF8toUTF32
FUNC 9b20 13 0 google_breakpad::MD5Init(google_breakpad::MD5Context*)
FUNC 9b40 137 0 google_breakpad::MD5Update(google_breakpad::MD5Context*, unsigned char const*, unsigned long)
FUNC 9c80 6ec 0 google_breakpad::MD5Transform(unsigned int*, unsigned int const*)
FUNC a370 108 0 google_breakpad::MD5Final(unsigned char*, google_breakpad::MD5Context*)
FUNC a480 ed 0 google_breakpad::UTF8ToUTF16(char const*, std::__1::vector<unsigned short, std::__1::allocator<unsigned short> >*)
FUNC a570 685 0 std::__1::vector<unsigned short, std::__1::allocator<unsigned short> >::insert(std::__1::__wrap_iter<unsigned short const*>, unsigned long, unsigned short const&)
FUNC ac00 7f 0 google_breakpad::UTF8ToUTF16Char(char const*, int, unsigned short*)
FUNC ac80 ed 0 google_breakpad::UTF32ToUTF16(wchar_t const*, std::__1::vector<unsigned short, std::__1::allocator<unsigned short> >*)
FUNC ad70 4c 0 google_breakpad::UTF32ToUTF16Char(wchar_t, unsigned short*)
FUNC adc0 2be 0 google_breakpad::UTF16ToUTF8(std::__1::vector<unsigned short, std::__1::allocator<unsigned short> > const&, bool)
FUNC b080 114 0 std::__1::vector<unsigned short, std::__1::allocator<unsigned short> >::__append(unsigned long)
FUNC b1a0 5 0 breakpad::BootstrapRegister(unsigned int, char*, unsigned int)
FUNC b1b0 16 0 <name omitted>
FUNC b1d0 16 0 google_breakpad::FileID::FileID(char const*)
FUNC b1f0 d6 0 google_breakpad::FileID::FileIdentifier(unsigned char*)
FUNC b2d0 a8 0 google_breakpad::FileID::MachoIdentifier(int, int, unsigned char*)
FUNC b380 8e 0 google_breakpad::FileID::ConvertIdentifierToString(unsigned char const*, char*, int)
FUNC b410 c5 0 <name omitted>
FUNC b4e0 c5 0 MacFileUtilities::MachoID::MachoID(char const*)
FUNC b5b0 c0 0 <name omitted>
FUNC b670 c0 0 MacFileUtilities::MachoID::MachoID(char const*, void*, unsigned long)
FUNC b730 1 0 MacFileUtilities::MachoID::~MachoID()
FUNC b740 1 0 MacFileUtilities::MachoID::~MachoID()
FUNC b750 280 0 MacFileUtilities::MachoID::UpdateCRC(unsigned char*, unsigned long)
FUNC b9d0 e 0 MacFileUtilities::MachoID::UpdateMD5(unsigned char*, unsigned long)
FUNC b9e0 eb 0 <name omitted>
FUNC bad0 6b 0 MacFileUtilities::MachoID::UUIDCommand(int, int, unsigned char*)
FUNC bb40 8b 0 MacFileUtilities::MachoID::WalkHeader(int, int, bool (*)(MacFileUtilities::MachoWalker*, load_command*, long long, bool, void*), void*)
FUNC bbd0 3d 0 MacFileUtilities::MachoID::UUIDWalkerCB(MacFileUtilities::MachoWalker*, load_command*, long long, bool, void*)
FUNC bc10 e4 0 MacFileUtilities::MachoID::IDCommand(int, int, unsigned char*)
FUNC bd00 3d 0 MacFileUtilities::MachoID::IDWalkerCB(MacFileUtilities::MachoWalker*, load_command*, long long, bool, void*)
FUNC bd40 40 0 MacFileUtilities::MachoID::Adler32(int, int)
FUNC bd80 598 0 MacFileUtilities::MachoID::WalkerCB(MacFileUtilities::MachoWalker*, load_command*, long long, bool, void*)
FUNC c320 6c 0 MacFileUtilities::MachoID::MD5(int, int, unsigned char*)
FUNC c390 f 0 breakpad_swap_uuid_command(breakpad_uuid_command*)
FUNC c3a0 f 0 breakpad_swap_load_command(load_command*)
FUNC c3b0 22 0 breakpad_swap_dylib_command(dylib_command*)
FUNC c3e0 35 0 breakpad_swap_segment_command(segment_command*)
FUNC c420 6d 0 breakpad_swap_segment_command_64(segment_command_64*)
FUNC c490 f 0 breakpad_swap_fat_header(fat_header*)
FUNC c4a0 87 0 breakpad_swap_fat_arch(fat_arch*, unsigned int)
FUNC c530 2a 0 breakpad_swap_mach_header(mach_header*)
FUNC c560 25 0 breakpad_swap_mach_header_64(mach_header_64*)
FUNC c590 c8 0 breakpad_swap_section(section*, unsigned int)
FUNC c660 5e 0 breakpad_swap_section_64(section_64*, unsigned int)
FUNC c6c0 4d 0 <name omitted>
FUNC c710 4d 0 MacFileUtilities::MachoWalker::MachoWalker(char const*, bool (*)(MacFileUtilities::MachoWalker*, load_command*, long long, bool, void*), void*)
FUNC c760 2f 0 <name omitted>
FUNC c790 2f 0 MacFileUtilities::MachoWalker::MachoWalker(void*, unsigned long, bool (*)(MacFileUtilities::MachoWalker*, load_command*, long long, bool, void*), void*)
FUNC c7c0 17 0 <name omitted>
FUNC c7e0 17 0 MacFileUtilities::MachoWalker::~MachoWalker()
FUNC c800 152 0 MacFileUtilities::MachoWalker::WalkHeader(int, int)
FUNC c960 392 0 MacFileUtilities::MachoWalker::FindHeader(int, int, long long&)
FUNC cd00 e9 0 MacFileUtilities::MachoWalker::WalkHeader64AtOffset(long long)
FUNC cdf0 116 0 MacFileUtilities::MachoWalker::WalkHeaderAtOffset(long long)
FUNC cf10 5f 0 MacFileUtilities::MachoWalker::ReadBytes(void*, unsigned long, long long)
FUNC cf70 34 0 MacFileUtilities::MachoWalker::CurrentHeader(mach_header_64*, long long*)
FUNC cfb0 1ab 0 MacFileUtilities::MachoWalker::WalkHeaderCore(long long, unsigned int, bool)
FUNC d160 107 0 MacStringUtils::ConvertToString(__CFString const*)
FUNC d270 31d 0 MacStringUtils::IntegerValueAtIndex(std::__1::basic_string<char, std::__1::char_traits<char>, std::__1::allocator<char> >&, unsigned int)
FUNC d590 44 0 <name omitted>
FUNC d5e0 1a 0 google_breakpad::MachMessage::SetDescriptorCount(int)
FUNC d600 73 0 google_breakpad::MachMessage::SetData(void*, int)
FUNC d680 34 0 google_breakpad::MachSendMessage::MachSendMessage(int)
FUNC d6c0 1c 0 google_breakpad::MachMessage::CalculateSize()
FUNC d6e0 e 0 google_breakpad::MachMessage::GetDataPacket()
FUNC d6f0 17 0 <name omitted>
FUNC d710 aa 0 google_breakpad::MachMessage::AddDescriptor(google_breakpad::MachMsgPortDescriptor const&)
FUNC d7c0 16 0 <name omitted>
FUNC d7e0 13 0 google_breakpad::MachMessage::GetTranslatedPort(int)
FUNC d800 83 0 <name omitted>
FUNC d890 83 0 google_breakpad::ReceivePort::ReceivePort(char const*)
FUNC d920 3f 0 <name omitted>
FUNC d960 3f 0 google_breakpad::ReceivePort::ReceivePort()
FUNC d9a0 a 0 <name omitted>
FUNC d9b0 a 0 google_breakpad::ReceivePort::ReceivePort(unsigned int)
FUNC d9c0 23 0 <name omitted>
FUNC d9f0 23 0 google_breakpad::ReceivePort::~ReceivePort()
FUNC da20 66 0 google_breakpad::ReceivePort::WaitForMessage(google_breakpad::MachReceiveMessage*, unsigned int)
FUNC da90 4b 0 <name omitted>
FUNC dae0 4b 0 google_breakpad::MachPortSender::MachPortSender(char const*)
FUNC db30 a 0 <name omitted>
FUNC db40 a 0 google_breakpad::MachPortSender::MachPortSender(unsigned int)
FUNC db50 41 0 google_breakpad::MachPortSender::SendMessage(google_breakpad::MachSendMessage&, unsigned int)
FUNC dba0 c3 0 main
FUNC dc70 33 0 (anonymous namespace)::callback(char const*, char const*, void*, bool)
PUBLIC 0 0 _mh_execute_header
PUBLIC 4680 0 __clang_call_terminate
PUBLIC e36c 0 GCC_except_table2
PUBLIC e384 0 GCC_except_table5
PUBLIC e39c 0 GCC_except_table11
PUBLIC e41c 0 GCC_except_table13
PUBLIC e49c 0 GCC_except_table0
PUBLIC e534 0 GCC_except_table3
PUBLIC e560 0 GCC_except_table8
PUBLIC e60c 0 GCC_except_table9
PUBLIC e6b8 0 GCC_except_table14
PUBLIC e6e4 0 GCC_except_table15
PUBLIC e720 0 GCC_except_table3
PUBLIC e75c 0 GCC_except_table8
PUBLIC e77c 0 GCC_except_table10
PUBLIC e7bc 0 GCC_except_table16
PUBLIC e7e4 0 GCC_except_table17
PUBLIC e810 0 GCC_except_table18
PUBLIC e884 0 GCC_except_table19
PUBLIC e8cc 0 GCC_except_table25
PUBLIC e90c 0 GCC_except_table0
PUBLIC e968 0 GCC_except_table1
PUBLIC e9a4 0 GCC_except_table3
PUBLIC ea0c 0 GCC_except_table5
PUBLIC ea24 0 GCC_except_table9
PUBLIC ea60 0 GCC_except_table10
PUBLIC eafc 0 GCC_except_table11
PUBLIC eb64 0 GCC_except_table12
PUBLIC ec5c 0 GCC_except_table13
PUBLIC ecc4 0 GCC_except_table14
PUBLIC ed7c 0 GCC_except_table15
PUBLIC ee0c 0 GCC_except_table16
PUBLIC ee4c 0 GCC_except_table18
PUBLIC ee78 0 GCC_except_table23
PUBLIC eed4 0 GCC_except_table24
PUBLIC ef30 0 GCC_except_table30
PUBLIC efc0 0 GCC_except_table31
PUBLIC f020 0 GCC_except_table33
PUBLIC f0bc 0 GCC_except_table5
PUBLIC f110 0 GCC_except_table3
PUBLIC f13c 0 GCC_except_table10
PUBLIC f184 0 GCC_except_table4
PUBLIC f19c 0 GCC_except_table6
PUBLIC f1b4 0 GCC_except_table0
PUBLIC f1fc 0 GCC_except_table1
PUBLIC f23c 0 GCC_except_table16
PUBLIC f254 0 GCC_except_table18
PUBLIC f26c 0 GCC_except_table0
PUBLIC f700 0 google_breakpad::MinidumpFileWriter::kInvalidMDRVA
PUBLIC f720 0 typeinfo name for google_breakpad::MinidumpGenerator
PUBLIC f750 0 firstByteMark
PUBLIC f760 0 trailingBytesForUTF8
PUBLIC f860 0 offsetsFromUTF8
PUBLIC 113c0 0 vtable for google_breakpad::MinidumpGenerator
PUBLIC 11460 0 typeinfo for google_breakpad::MinidumpGenerator
PUBLIC 114d8 0 google_breakpad::s_exception_mask
PUBLIC 114e0 0 google_breakpad::gProtectedData (.0)
PUBLIC 114f0 0 google_breakpad::MinidumpGenerator::build_string_
PUBLIC 11500 0 google_breakpad::MinidumpGenerator::os_major_version_
PUBLIC 11504 0 google_breakpad::MinidumpGenerator::os_minor_version_
PUBLIC 11508 0 google_breakpad::MinidumpGenerator::os_build_number_
STACK CFI INIT d20 1a .cfa: $rsp 8 + .ra: .cfa -8 + ^
STACK CFI INIT d40 1a .cfa: $rsp 8 + .ra: .cfa -8 + ^
STACK CFI INIT e70 2d .cfa: $rsp 8 + .ra: .cfa -8 + ^
STACK CFI e71 .cfa: $rsp 16 +
STACK CFI INIT 1140 5 .cfa: $rsp 8 + .ra: .cfa -8 + ^
STACK CFI INIT 1420 5 .cfa: $rsp 8 + .ra: .cfa -8 + ^
STACK CFI INIT 17d0 104 .cfa: $rsp 8 + .ra: .cfa -8 + ^
STACK CFI 17d1 .cfa: $rsp 16 +
STACK CFI 17d3 .cfa: $rsp 24 +
STACK CFI 17d5 .cfa: $rsp 32 +
STACK CFI 17d7 .cfa: $rsp 40 +
STACK CFI 17d9 .cfa: $rsp 48 +
STACK CFI 17da .cfa: $rsp 56 +
STACK CFI 17db $r12: .cfa -48 + ^ $r13: .cfa -40 + ^ $r14: .cfa -32 + ^ $r15: .cfa -24 + ^ $rbp: .cfa -16 + ^ $rbx: .cfa -56 + ^ .cfa: $rsp 64 +
STACK CFI INIT 19a0 c8 .cfa: $rsp 8 + .ra: .cfa -8 + ^
STACK CFI 19a2 .cfa: $rsp 16 +
STACK CFI 19a4 .cfa: $rsp 24 +
STACK CFI 19a6 .cfa: $rsp 32 +
STACK CFI 19a7 .cfa: $rsp 40 +
STACK CFI 19a8 $r12: .cfa -32 + ^ $r14: .cfa -24 + ^ $r15: .cfa -16 + ^ $rbx: .cfa -40 + ^ .cfa: $rsp 48 +
STACK CFI INIT 1a70 f3 .cfa: $rsp 8 + .ra: .cfa -8 + ^
STACK CFI 1a72 .cfa: $rsp 16 +
STACK CFI 1a74 .cfa: $rsp 24 +
STACK CFI 1a76 .cfa: $rsp 32 +
STACK CFI 1a77 .cfa: $rsp 40 +
STACK CFI 1a78 $r12: .cfa -32 + ^ $r14: .cfa -24 + ^ $r15: .cfa -16 + ^ $rbx: .cfa -40 + ^ .cfa: $rsp 48 +
STACK CFI INIT 1df0 1ba .cfa: $rsp 8 + .ra: .cfa -8 + ^
STACK CFI 1df1 .cfa: $rsp 16 +
STACK CFI 1df3 .cfa: $rsp 24 +
STACK CFI 1df5 .cfa: $rsp 32 +
STACK CFI 1df7 .cfa: $rsp 40 +
STACK CFI 1df9 .cfa: $rsp 48 +
STACK CFI 1dfa .cfa: $rsp 56 +
STACK CFI 1dfb $r12: .cfa -48 + ^ $r13: .cfa -40 + ^ $r14: .cfa -32 + ^ $r15: .cfa -24 + ^ $rbp: .cfa -16 + ^ $rbx: .cfa -56 + ^ .cfa: $rsp 64 +
STACK CFI INIT 1fb0 7 .cfa: $rsp 8 + .ra: .cfa -8 + ^
STACK CFI INIT 21c0 5 .cfa: $rsp 8 + .ra: .cfa -8 + ^
STACK CFI INIT 2db0 4a .cfa: $rsp 8 + .ra: .cfa -8 + ^
STACK CFI INIT 2e00 3a .cfa: $rsp 8 + .ra: .cfa -8 + ^
STACK CFI INIT 2e40 1c3 .cfa: $rsp 8 + .ra: .cfa -8 + ^
STACK CFI 2e41 .cfa: $rsp 16 +
STACK CFI 2e43 .cfa: $rsp 24 +
STACK CFI 2e45 .cfa: $rsp 32 +
STACK CFI 2e47 .cfa: $rsp 40 +
STACK CFI 2e49 .cfa: $rsp 48 +
STACK CFI 2e4a .cfa: $rsp 56 +
STACK CFI 2e4b $r12: .cfa -48 + ^ $r13: .cfa -40 + ^ $r14: .cfa -32 + ^ $r15: .cfa -24 + ^ $rbp: .cfa -16 + ^ $rbx: .cfa -56 + ^ .cfa: $rsp 64 +
STACK CFI INIT 32f0 185 .cfa: $rsp 8 + .ra: .cfa -8 + ^
STACK CFI 32f1 .cfa: $rsp 16 +
STACK CFI 32f3 .cfa: $rsp 24 +
STACK CFI 32f5 .cfa: $rsp 32 +
STACK CFI 32f7 .cfa: $rsp 40 +
STACK CFI 32f9 .cfa: $rsp 48 +
STACK CFI 32fa .cfa: $rsp 56 +
STACK CFI 32fb $r12: .cfa -48 + ^ $r13: .cfa -40 + ^ $r14: .cfa -32 + ^ $r15: .cfa -24 + ^ $rbp: .cfa -16 + ^ $rbx: .cfa -56 + ^ .cfa: $rsp 64 +
STACK CFI INIT 3ec0 5 .cfa: $rsp 8 + .ra: .cfa -8 + ^
STACK CFI INIT 3ed0 20 .cfa: $rsp 8 + .ra: .cfa -8 + ^
STACK CFI INIT 42a0 e .cfa: $rsp 8 + .ra: .cfa -8 + ^
STACK CFI INIT 42b0 e .cfa: $rsp 8 + .ra: .cfa -8 + ^
STACK CFI INIT 42c0 9 .cfa: $rsp 8 + .ra: .cfa -8 + ^
STACK CFI INIT 4400 8 .cfa: $rsp 8 + .ra: .cfa -8 + ^
STACK CFI INIT 4680 b .cfa: $rsp 8 + .ra: .cfa -8 + ^
STACK CFI 4681 .cfa: $rsp 16 +
STACK CFI INIT 4690 5 .cfa: $rsp 8 + .ra: .cfa -8 + ^
STACK CFI INIT 5970 5 .cfa: $rsp 8 + .ra: .cfa -8 + ^
STACK CFI INIT 5cd0 5 .cfa: $rsp 8 + .ra: .cfa -8 + ^
STACK CFI INIT 5d80 5 .cfa: $rsp 8 + .ra: .cfa -8 + ^
STACK CFI INIT 5db0 5 .cfa: $rsp 8 + .ra: .cfa -8 + ^
STACK CFI INIT 7410 24 .cfa: $rsp 8 + .ra: .cfa -8 + ^
STACK CFI 7411 .cfa: $rsp 16 +
STACK CFI INIT 7440 8 .cfa: $rsp 8 + .ra: .cfa -8 + ^
STACK CFI INIT 7450 9 .cfa: $rsp 8 + .ra: .cfa -8 + ^
STACK CFI INIT 7460 22 .cfa: $rsp 8 + .ra: .cfa -8 + ^
STACK CFI 7461 .cfa: $rsp 16 +
STACK CFI INIT 7810 3d .cfa: $rsp 8 + .ra: .cfa -8 + ^
STACK CFI 7811 .cfa: $rsp 16 +
STACK CFI INIT 7850 4 .cfa: $rsp 8 + .ra: .cfa -8 + ^
STACK CFI INIT 7860 8 .cfa: $rsp 8 + .ra: .cfa -8 + ^
STACK CFI INIT 7870 b5 .cfa: $rsp 8 + .ra: .cfa -8 + ^
STACK CFI 7871 .cfa: $rsp 16 +
STACK CFI 7873 .cfa: $rsp 24 +
STACK CFI 7875 .cfa: $rsp 32 +
STACK CFI 7876 .cfa: $rsp 40 +
STACK CFI 7877 $r14: .cfa -32 + ^ $r15: .cfa -24 + ^ $rbp: .cfa -16 + ^ $rbx: .cfa -40 + ^ .cfa: $rsp 48 +
STACK CFI INIT 8100 4e .cfa: $rsp 8 + .ra: .cfa -8 + ^
STACK CFI 8101 .cfa: $rsp 16 +
STACK CFI 8102 .cfa: $rsp 24 +
STACK CFI 8103 $rbp: .cfa -16 + ^ $rbx: .cfa -24 + ^ .cfa: $rsp 32 +
STACK CFI INIT 85b0 158 .cfa: $rsp 8 + .ra: .cfa -8 + ^
STACK CFI 85b1 .cfa: $rsp 16 +
STACK CFI 85b3 .cfa: $rsp 24 +
STACK CFI 85b5 .cfa: $rsp 32 +
STACK CFI 85b7 .cfa: $rsp 40 +
STACK CFI 85b9 .cfa: $rsp 48 +
STACK CFI 85ba .cfa: $rsp 56 +
STACK CFI 85bb $r12: .cfa -48 + ^ $r13: .cfa -40 + ^ $r14: .cfa -32 + ^ $r15: .cfa -24 + ^ $rbp: .cfa -16 + ^ $rbx: .cfa -56 + ^ .cfa: $rsp 64 +
STACK CFI INIT 8f70 fa .cfa: $rsp 8 + .ra: .cfa -8 + ^
STACK CFI INIT 9b20 13 .cfa: $rsp 8 + .ra: .cfa -8 + ^
STACK CFI INIT 9b40 137 .cfa: $rsp 8 + .ra: .cfa -8 + ^
STACK CFI 9b41 .cfa: $rsp 16 +
STACK CFI 9b43 .cfa: $rsp 24 +
STACK CFI 9b45 .cfa: $rsp 32 +
STACK CFI 9b47 .cfa: $rsp 40 +
STACK CFI 9b49 .cfa: $rsp 48 +
STACK CFI 9b4a .cfa: $rsp 56 +
STACK CFI 9b4b $r12: .cfa -48 + ^ $r13: .cfa -40 + ^ $r14: .cfa -32 + ^ $r15: .cfa -24 + ^ $rbp: .cfa -16 + ^ $rbx: .cfa -56 + ^ .cfa: $rsp 64 +
STACK CFI INIT a370 108 .cfa: $rsp 8 + .ra: .cfa -8 + ^
STACK CFI a371 .cfa: $rsp 16 +
STACK CFI a373 .cfa: $rsp 24 +
STACK CFI a375 .cfa: $rsp 32 +
STACK CFI a376 .cfa: $rsp 40 +
STACK CFI a377 $r14: .cfa -32 + ^ $r15: .cfa -24 + ^ $rbp: .cfa -16 + ^ $rbx: .cfa -40 + ^ .cfa: $rsp 48 +
STACK CFI INIT b080 114 .cfa: $rsp 8 + .ra: .cfa -8 + ^
STACK CFI b081 .cfa: $rsp 16 +
STACK CFI b083 .cfa: $rsp 24 +
STACK CFI b085 .cfa: $rsp 32 +
STACK CFI b087 .cfa: $rsp 40 +
STACK CFI b089 .cfa: $rsp 48 +
STACK CFI b08a .cfa: $rsp 56 +
STACK CFI b08b $r12: .cfa -48 + ^ $r13: .cfa -40 + ^ $r14: .cfa -32 + ^ $r15: .cfa -24 + ^ $rbp: .cfa -16 + ^ $rbx: .cfa -56 + ^ .cfa: $rsp 64 +
STACK CFI INIT b1a0 5 .cfa: $rsp 8 + .ra: .cfa -8 + ^
STACK CFI INIT b1b0 16 .cfa: $rsp 8 + .ra: .cfa -8 + ^
STACK CFI INIT b1d0 16 .cfa: $rsp 8 + .ra: .cfa -8 + ^
STACK CFI INIT b410 c5 .cfa: $rsp 8 + .ra: .cfa -8 + ^
STACK CFI INIT b4e0 c5 .cfa: $rsp 8 + .ra: .cfa -8 + ^
STACK CFI INIT b5b0 c0 .cfa: $rsp 8 + .ra: .cfa -8 + ^
STACK CFI INIT b670 c0 .cfa: $rsp 8 + .ra: .cfa -8 + ^
STACK CFI INIT b730 1 .cfa: $rsp 8 + .ra: .cfa -8 + ^
STACK CFI INIT b740 1 .cfa: $rsp 8 + .ra: .cfa -8 + ^
STACK CFI INIT b9d0 e .cfa: $rsp 8 + .ra: .cfa -8 + ^
STACK CFI INIT bbd0 3d .cfa: $rsp 8 + .ra: .cfa -8 + ^
STACK CFI bbd1 .cfa: $rsp 16 +
STACK CFI bbd2 .cfa: $rsp 24 +
STACK CFI bbd3 $rbp: .cfa -16 + ^ $rbx: .cfa -24 + ^ .cfa: $rsp 32 +
STACK CFI INIT bd00 3d .cfa: $rsp 8 + .ra: .cfa -8 + ^
STACK CFI bd01 .cfa: $rsp 16 +
STACK CFI bd02 .cfa: $rsp 24 +
STACK CFI bd03 $rbp: .cfa -16 + ^ $rbx: .cfa -24 + ^ .cfa: $rsp 32 +
STACK CFI INIT c390 f .cfa: $rsp 8 + .ra: .cfa -8 + ^
STACK CFI INIT c3a0 f .cfa: $rsp 8 + .ra: .cfa -8 + ^
STACK CFI INIT c3b0 22 .cfa: $rsp 8 + .ra: .cfa -8 + ^
STACK CFI INIT c3e0 35 .cfa: $rsp 8 + .ra: .cfa -8 + ^
STACK CFI INIT c420 6d .cfa: $rsp 8 + .ra: .cfa -8 + ^
STACK CFI INIT c490 f .cfa: $rsp 8 + .ra: .cfa -8 + ^
STACK CFI INIT c4a0 87 .cfa: $rsp 8 + .ra: .cfa -8 + ^
STACK CFI INIT c530 2a .cfa: $rsp 8 + .ra: .cfa -8 + ^
STACK CFI INIT c560 25 .cfa: $rsp 8 + .ra: .cfa -8 + ^
STACK CFI INIT c590 c8 .cfa: $rsp 8 + .ra: .cfa -8 + ^
STACK CFI INIT c660 5e .cfa: $rsp 8 + .ra: .cfa -8 + ^
STACK CFI INIT c760 2f .cfa: $rsp 8 + .ra: .cfa -8 + ^
STACK CFI INIT c790 2f .cfa: $rsp 8 + .ra: .cfa -8 + ^
STACK CFI INIT c7c0 17 .cfa: $rsp 8 + .ra: .cfa -8 + ^
STACK CFI c7c1 .cfa: $rsp 16 +
STACK CFI INIT c7e0 17 .cfa: $rsp 8 + .ra: .cfa -8 + ^
STACK CFI c7e1 .cfa: $rsp 16 +
STACK CFI INIT cf10 5f .cfa: $rsp 8 + .ra: .cfa -8 + ^
STACK CFI cf11 .cfa: $rsp 16 +
STACK CFI cf12 .cfa: $rsp 24 +
STACK CFI cf13 $rbp: .cfa -16 + ^ $rbx: .cfa -24 + ^ .cfa: $rsp 32 +
STACK CFI INIT cf70 34 .cfa: $rsp 8 + .ra: .cfa -8 + ^
STACK CFI INIT cfb0 1ab .cfa: $rsp 8 + .ra: .cfa -8 + ^
STACK CFI cfb1 .cfa: $rsp 16 +
STACK CFI cfb3 .cfa: $rsp 24 +
STACK CFI cfb5 .cfa: $rsp 32 +
STACK CFI cfb7 .cfa: $rsp 40 +
STACK CFI cfb9 .cfa: $rsp 48 +
STACK CFI cfba .cfa: $rsp 56 +
STACK CFI cfbb $r12: .cfa -48 + ^ $r13: .cfa -40 + ^ $r14: .cfa -32 + ^ $r15: .cfa -24 + ^ $rbp: .cfa -16 + ^ $rbx: .cfa -56 + ^ .cfa: $rsp 64 +
STACK CFI INIT d590 44 .cfa: $rsp 8 + .ra: .cfa -8 + ^
STACK CFI d591 .cfa: $rsp 16 +
STACK CFI d592 .cfa: $rsp 24 +
STACK CFI d593 $rbp: .cfa -16 + ^ $rbx: .cfa -24 + ^ .cfa: $rsp 32 +
STACK CFI INIT d5e0 1a .cfa: $rsp 8 + .ra: .cfa -8 + ^
STACK CFI INIT d680 34 .cfa: $rsp 8 + .ra: .cfa -8 + ^
STACK CFI d681 .cfa: $rsp 16 +
STACK CFI d682 .cfa: $rsp 24 +
STACK CFI d683 $rbp: .cfa -16 + ^ $rbx: .cfa -24 + ^ .cfa: $rsp 32 +
STACK CFI INIT d6c0 1c .cfa: $rsp 8 + .ra: .cfa -8 + ^
STACK CFI INIT d6e0 e .cfa: $rsp 8 + .ra: .cfa -8 + ^
STACK CFI INIT d6f0 17 .cfa: $rsp 8 + .ra: .cfa -8 + ^
STACK CFI INIT d710 aa .cfa: $rsp 8 + .ra: .cfa -8 + ^
STACK CFI d712 .cfa: $rsp 16 +
STACK CFI d713 .cfa: $rsp 24 +
STACK CFI d714 $r14: .cfa -16 + ^ $rbx: .cfa -24 + ^ .cfa: $rsp 32 +
STACK CFI INIT d7c0 16 .cfa: $rsp 8 + .ra: .cfa -8 + ^
STACK CFI INIT d7e0 13 .cfa: $rsp 8 + .ra: .cfa -8 + ^
STACK CFI INIT d920 3f .cfa: $rsp 8 + .ra: .cfa -8 + ^
STACK CFI d921 .cfa: $rsp 16 +
STACK CFI d922 .cfa: $rsp 24 +
STACK CFI d923 $rbp: .cfa -16 + ^ $rbx: .cfa -24 + ^ .cfa: $rsp 32 +
STACK CFI INIT d960 3f .cfa: $rsp 8 + .ra: .cfa -8 + ^
STACK CFI d961 .cfa: $rsp 16 +
STACK CFI d962 .cfa: $rsp 24 +
STACK CFI d963 $rbp: .cfa -16 + ^ $rbx: .cfa -24 + ^ .cfa: $rsp 32 +
STACK CFI INIT d9a0 a .cfa: $rsp 8 + .ra: .cfa -8 + ^
STACK CFI INIT d9b0 a .cfa: $rsp 8 + .ra: .cfa -8 + ^
STACK CFI INIT d9c0 23 .cfa: $rsp 8 + .ra: .cfa -8 + ^
STACK CFI d9c1 .cfa: $rsp 16 +
STACK CFI INIT d9f0 23 .cfa: $rsp 8 + .ra: .cfa -8 + ^
STACK CFI d9f1 .cfa: $rsp 16 +
STACK CFI INIT da20 66 .cfa: $rsp 8 + .ra: .cfa -8 + ^
STACK CFI da21 .cfa: $rsp 16 +
STACK CFI INIT da90 4b .cfa: $rsp 8 + .ra: .cfa -8 + ^
STACK CFI da92 .cfa: $rsp 16 +
STACK CFI da93 .cfa: $rsp 24 +
STACK CFI da94 $r14: .cfa -16 + ^ $rbx: .cfa -24 + ^ .cfa: $rsp 32 +
STACK CFI INIT dae0 4b .cfa: $rsp 8 + .ra: .cfa -8 + ^
STACK CFI dae2 .cfa: $rsp 16 +
STACK CFI dae3 .cfa: $rsp 24 +
STACK CFI dae4 $r14: .cfa -16 + ^ $rbx: .cfa -24 + ^ .cfa: $rsp 32 +
STACK CFI INIT db30 a .cfa: $rsp 8 + .ra: .cfa -8 + ^
STACK CFI INIT db40 a .cfa: $rsp 8 + .ra: .cfa -8 + ^
STACK CFI INIT db50 41 .cfa: $rsp 8 + .ra: .cfa -8 + ^
STACK CFI db51 .cfa: $rsp 16 +
